
C:\Users\Vedansh\AppData\Local\arduino\sketches\0A894F93F604B966FD5B1CC01CAD7975/MSDA_Firmware_USB.ino.elf:     file format elf32-avr


Disassembly of section .text:

00000000 <__vectors>:
__vectors():
../../../../crt1/gcrt1.S:61
       0:	51 c0       	rjmp	.+162    	; 0xa4 <__dtors_end>
       2:	00 00       	nop
../../../../crt1/gcrt1.S:67
       4:	76 c0       	rjmp	.+236    	; 0xf2 <__bad_interrupt>
       6:	00 00       	nop
../../../../crt1/gcrt1.S:68
       8:	74 c0       	rjmp	.+232    	; 0xf2 <__bad_interrupt>
       a:	00 00       	nop
../../../../crt1/gcrt1.S:69
       c:	72 c0       	rjmp	.+228    	; 0xf2 <__bad_interrupt>
       e:	00 00       	nop
../../../../crt1/gcrt1.S:70
      10:	70 c0       	rjmp	.+224    	; 0xf2 <__bad_interrupt>
      12:	00 00       	nop
../../../../crt1/gcrt1.S:71
      14:	6e c0       	rjmp	.+220    	; 0xf2 <__bad_interrupt>
      16:	00 00       	nop
../../../../crt1/gcrt1.S:72
      18:	6c c0       	rjmp	.+216    	; 0xf2 <__bad_interrupt>
      1a:	00 00       	nop
../../../../crt1/gcrt1.S:73
      1c:	6a c0       	rjmp	.+212    	; 0xf2 <__bad_interrupt>
      1e:	00 00       	nop
../../../../crt1/gcrt1.S:74
      20:	68 c0       	rjmp	.+208    	; 0xf2 <__bad_interrupt>
      22:	00 00       	nop
../../../../crt1/gcrt1.S:75
      24:	66 c0       	rjmp	.+204    	; 0xf2 <__bad_interrupt>
      26:	00 00       	nop
../../../../crt1/gcrt1.S:76
      28:	64 c0       	rjmp	.+200    	; 0xf2 <__bad_interrupt>
      2a:	00 00       	nop
../../../../crt1/gcrt1.S:77
      2c:	62 c0       	rjmp	.+196    	; 0xf2 <__bad_interrupt>
      2e:	00 00       	nop
../../../../crt1/gcrt1.S:78
      30:	60 c0       	rjmp	.+192    	; 0xf2 <__bad_interrupt>
      32:	00 00       	nop
../../../../crt1/gcrt1.S:79
      34:	5e c0       	rjmp	.+188    	; 0xf2 <__bad_interrupt>
      36:	00 00       	nop
../../../../crt1/gcrt1.S:80
      38:	5c c0       	rjmp	.+184    	; 0xf2 <__bad_interrupt>
      3a:	00 00       	nop
../../../../crt1/gcrt1.S:81
      3c:	5a c0       	rjmp	.+180    	; 0xf2 <__bad_interrupt>
      3e:	00 00       	nop
../../../../crt1/gcrt1.S:82
      40:	58 c0       	rjmp	.+176    	; 0xf2 <__bad_interrupt>
      42:	00 00       	nop
../../../../crt1/gcrt1.S:83
      44:	56 c0       	rjmp	.+172    	; 0xf2 <__bad_interrupt>
      46:	00 00       	nop
../../../../crt1/gcrt1.S:84
      48:	54 c0       	rjmp	.+168    	; 0xf2 <__bad_interrupt>
      4a:	00 00       	nop
../../../../crt1/gcrt1.S:85
      4c:	52 c0       	rjmp	.+164    	; 0xf2 <__bad_interrupt>
      4e:	00 00       	nop
../../../../crt1/gcrt1.S:86
      50:	50 c0       	rjmp	.+160    	; 0xf2 <__bad_interrupt>
      52:	00 00       	nop
../../../../crt1/gcrt1.S:87
      54:	4e c0       	rjmp	.+156    	; 0xf2 <__bad_interrupt>
      56:	00 00       	nop
../../../../crt1/gcrt1.S:88
      58:	4c c0       	rjmp	.+152    	; 0xf2 <__bad_interrupt>
      5a:	00 00       	nop
../../../../crt1/gcrt1.S:89
      5c:	4a c0       	rjmp	.+148    	; 0xf2 <__bad_interrupt>
      5e:	00 00       	nop
../../../../crt1/gcrt1.S:90
      60:	48 c0       	rjmp	.+144    	; 0xf2 <__bad_interrupt>
      62:	00 00       	nop
../../../../crt1/gcrt1.S:91
      64:	46 c0       	rjmp	.+140    	; 0xf2 <__bad_interrupt>
      66:	00 00       	nop
../../../../crt1/gcrt1.S:92
      68:	44 c0       	rjmp	.+136    	; 0xf2 <__bad_interrupt>
      6a:	00 00       	nop
../../../../crt1/gcrt1.S:93
      6c:	42 c0       	rjmp	.+132    	; 0xf2 <__bad_interrupt>
      6e:	00 00       	nop
../../../../crt1/gcrt1.S:94
      70:	40 c0       	rjmp	.+128    	; 0xf2 <__bad_interrupt>
      72:	00 00       	nop
../../../../crt1/gcrt1.S:95
      74:	3e c0       	rjmp	.+124    	; 0xf2 <__bad_interrupt>
      76:	00 00       	nop
../../../../crt1/gcrt1.S:96
      78:	3c c0       	rjmp	.+120    	; 0xf2 <__bad_interrupt>
      7a:	00 00       	nop
../../../../crt1/gcrt1.S:97
      7c:	3a c0       	rjmp	.+116    	; 0xf2 <__bad_interrupt>
      7e:	00 00       	nop
../../../../crt1/gcrt1.S:98
      80:	38 c0       	rjmp	.+112    	; 0xf2 <__bad_interrupt>
      82:	00 00       	nop
../../../../crt1/gcrt1.S:99
      84:	36 c0       	rjmp	.+108    	; 0xf2 <__bad_interrupt>
      86:	00 00       	nop
../../../../crt1/gcrt1.S:100
      88:	34 c0       	rjmp	.+104    	; 0xf2 <__bad_interrupt>
      8a:	00 00       	nop
../../../../crt1/gcrt1.S:101
      8c:	32 c0       	rjmp	.+100    	; 0xf2 <__bad_interrupt>
      8e:	00 00       	nop
../../../../crt1/gcrt1.S:102
      90:	db c3       	rjmp	.+1974   	; 0x848 <__vector_36>
      92:	00 00       	nop
../../../../crt1/gcrt1.S:103
      94:	26 c4       	rjmp	.+2124   	; 0x8e2 <__vector_37>
      96:	00 00       	nop
../../../../crt1/gcrt1.S:104
      98:	ff c3       	rjmp	.+2046   	; 0x898 <__vector_38>
      9a:	00 00       	nop
../../../../crt1/gcrt1.S:105
      9c:	2a c0       	rjmp	.+84     	; 0xf2 <__bad_interrupt>
	...

000000a0 <__ctors_start>:
__trampolines_start():
      a0:	e4 04       	cpc	r14, r4

000000a2 <__ctors_end>:
__dtors_start():
      a2:	fc 07       	cpc	r31, r28

000000a4 <__dtors_end>:
__dtors_end():
../../../../crt1/gcrt1.S:230
      a4:	11 24       	eor	r1, r1
../../../../crt1/gcrt1.S:231
      a6:	1f be       	out	0x3f, r1	; 63
../../../../crt1/gcrt1.S:232
      a8:	cf ef       	ldi	r28, 0xFF	; 255
../../../../crt1/gcrt1.S:234
      aa:	cd bf       	out	0x3d, r28	; 61
../../../../crt1/gcrt1.S:236
      ac:	df e3       	ldi	r29, 0x3F	; 63
../../../../crt1/gcrt1.S:237
      ae:	de bf       	out	0x3e, r29	; 62

000000b0 <__do_clear_bss>:
__do_clear_bss():
/home/jenkins-mingw32/workspace/avr-gcc-staging/label/Ubuntu14.04x64-mingw32/gcc-build/avr/avrxmega3/libgcc/../../../../gcc/libgcc/config/avr/lib1funcs.S:2441
      b0:	28 e2       	ldi	r18, 0x28	; 40
/home/jenkins-mingw32/workspace/avr-gcc-staging/label/Ubuntu14.04x64-mingw32/gcc-build/avr/avrxmega3/libgcc/../../../../gcc/libgcc/config/avr/lib1funcs.S:2442
      b2:	a6 e0       	ldi	r26, 0x06	; 6
/home/jenkins-mingw32/workspace/avr-gcc-staging/label/Ubuntu14.04x64-mingw32/gcc-build/avr/avrxmega3/libgcc/../../../../gcc/libgcc/config/avr/lib1funcs.S:2443
      b4:	b8 e2       	ldi	r27, 0x28	; 40
/home/jenkins-mingw32/workspace/avr-gcc-staging/label/Ubuntu14.04x64-mingw32/gcc-build/avr/avrxmega3/libgcc/../../../../gcc/libgcc/config/avr/lib1funcs.S:2444
      b6:	01 c0       	rjmp	.+2      	; 0xba <.do_clear_bss_start>

000000b8 <.do_clear_bss_loop>:
/home/jenkins-mingw32/workspace/avr-gcc-staging/label/Ubuntu14.04x64-mingw32/gcc-build/avr/avrxmega3/libgcc/../../../../gcc/libgcc/config/avr/lib1funcs.S:2446
      b8:	1d 92       	st	X+, r1

000000ba <.do_clear_bss_start>:
/home/jenkins-mingw32/workspace/avr-gcc-staging/label/Ubuntu14.04x64-mingw32/gcc-build/avr/avrxmega3/libgcc/../../../../gcc/libgcc/config/avr/lib1funcs.S:2448
      ba:	a9 3b       	cpi	r26, 0xB9	; 185
/home/jenkins-mingw32/workspace/avr-gcc-staging/label/Ubuntu14.04x64-mingw32/gcc-build/avr/avrxmega3/libgcc/../../../../gcc/libgcc/config/avr/lib1funcs.S:2449
      bc:	b2 07       	cpc	r27, r18
/home/jenkins-mingw32/workspace/avr-gcc-staging/label/Ubuntu14.04x64-mingw32/gcc-build/avr/avrxmega3/libgcc/../../../../gcc/libgcc/config/avr/lib1funcs.S:2450
      be:	e1 f7       	brne	.-8      	; 0xb8 <.do_clear_bss_loop>

000000c0 <__do_copy_data>:
__do_copy_data():
/home/jenkins-mingw32/workspace/avr-gcc-staging/label/Ubuntu14.04x64-mingw32/gcc-build/avr/avrxmega3/libgcc/../../../../gcc/libgcc/config/avr/lib1funcs.S:2409
      c0:	18 e2       	ldi	r17, 0x28	; 40
/home/jenkins-mingw32/workspace/avr-gcc-staging/label/Ubuntu14.04x64-mingw32/gcc-build/avr/avrxmega3/libgcc/../../../../gcc/libgcc/config/avr/lib1funcs.S:2410
      c2:	a0 e0       	ldi	r26, 0x00	; 0
/home/jenkins-mingw32/workspace/avr-gcc-staging/label/Ubuntu14.04x64-mingw32/gcc-build/avr/avrxmega3/libgcc/../../../../gcc/libgcc/config/avr/lib1funcs.S:2411
      c4:	b8 e2       	ldi	r27, 0x28	; 40
/home/jenkins-mingw32/workspace/avr-gcc-staging/label/Ubuntu14.04x64-mingw32/gcc-build/avr/avrxmega3/libgcc/../../../../gcc/libgcc/config/avr/lib1funcs.S:2412
      c6:	e5 e3       	ldi	r30, 0x35	; 53
/home/jenkins-mingw32/workspace/avr-gcc-staging/label/Ubuntu14.04x64-mingw32/gcc-build/avr/avrxmega3/libgcc/../../../../gcc/libgcc/config/avr/lib1funcs.S:2413
      c8:	fa e1       	ldi	r31, 0x1A	; 26
/home/jenkins-mingw32/workspace/avr-gcc-staging/label/Ubuntu14.04x64-mingw32/gcc-build/avr/avrxmega3/libgcc/../../../../gcc/libgcc/config/avr/lib1funcs.S:2414
      ca:	02 c0       	rjmp	.+4      	; 0xd0 <__do_copy_data+0x10>
/home/jenkins-mingw32/workspace/avr-gcc-staging/label/Ubuntu14.04x64-mingw32/gcc-build/avr/avrxmega3/libgcc/../../../../gcc/libgcc/config/avr/lib1funcs.S:2417
      cc:	05 90       	lpm	r0, Z+
/home/jenkins-mingw32/workspace/avr-gcc-staging/label/Ubuntu14.04x64-mingw32/gcc-build/avr/avrxmega3/libgcc/../../../../gcc/libgcc/config/avr/lib1funcs.S:2422
      ce:	0d 92       	st	X+, r0
/home/jenkins-mingw32/workspace/avr-gcc-staging/label/Ubuntu14.04x64-mingw32/gcc-build/avr/avrxmega3/libgcc/../../../../gcc/libgcc/config/avr/lib1funcs.S:2424
      d0:	a6 30       	cpi	r26, 0x06	; 6
/home/jenkins-mingw32/workspace/avr-gcc-staging/label/Ubuntu14.04x64-mingw32/gcc-build/avr/avrxmega3/libgcc/../../../../gcc/libgcc/config/avr/lib1funcs.S:2425
      d2:	b1 07       	cpc	r27, r17
/home/jenkins-mingw32/workspace/avr-gcc-staging/label/Ubuntu14.04x64-mingw32/gcc-build/avr/avrxmega3/libgcc/../../../../gcc/libgcc/config/avr/lib1funcs.S:2426
      d4:	d9 f7       	brne	.-10     	; 0xcc <__do_copy_data+0xc>

000000d6 <__do_global_ctors>:
__do_global_ctors():
/home/jenkins-mingw32/workspace/avr-gcc-staging/label/Ubuntu14.04x64-mingw32/gcc-build/avr/avrxmega3/libgcc/../../../../gcc/libgcc/config/avr/lib1funcs.S:2466
      d6:	10 e0       	ldi	r17, 0x00	; 0
/home/jenkins-mingw32/workspace/avr-gcc-staging/label/Ubuntu14.04x64-mingw32/gcc-build/avr/avrxmega3/libgcc/../../../../gcc/libgcc/config/avr/lib1funcs.S:2467
      d8:	c1 e5       	ldi	r28, 0x51	; 81
/home/jenkins-mingw32/workspace/avr-gcc-staging/label/Ubuntu14.04x64-mingw32/gcc-build/avr/avrxmega3/libgcc/../../../../gcc/libgcc/config/avr/lib1funcs.S:2468
      da:	d0 e0       	ldi	r29, 0x00	; 0
/home/jenkins-mingw32/workspace/avr-gcc-staging/label/Ubuntu14.04x64-mingw32/gcc-build/avr/avrxmega3/libgcc/../../../../gcc/libgcc/config/avr/lib1funcs.S:2472
      dc:	04 c0       	rjmp	.+8      	; 0xe6 <__do_global_ctors+0x10>
/home/jenkins-mingw32/workspace/avr-gcc-staging/label/Ubuntu14.04x64-mingw32/gcc-build/avr/avrxmega3/libgcc/../../../../gcc/libgcc/config/avr/lib1funcs.S:2474
      de:	21 97       	sbiw	r28, 0x01	; 1
/home/jenkins-mingw32/workspace/avr-gcc-staging/label/Ubuntu14.04x64-mingw32/gcc-build/avr/avrxmega3/libgcc/../../../../gcc/libgcc/config/avr/lib1funcs.S:2480
      e0:	fe 01       	movw	r30, r28
/home/jenkins-mingw32/workspace/avr-gcc-staging/label/Ubuntu14.04x64-mingw32/gcc-build/avr/avrxmega3/libgcc/../../../../gcc/libgcc/config/avr/lib1funcs.S:2481
      e2:	0e 94 4c 0a 	call	0x1498	; 0x1498 <__tablejump2__>
/home/jenkins-mingw32/workspace/avr-gcc-staging/label/Ubuntu14.04x64-mingw32/gcc-build/avr/avrxmega3/libgcc/../../../../gcc/libgcc/config/avr/lib1funcs.S:2483
      e6:	c0 35       	cpi	r28, 0x50	; 80
/home/jenkins-mingw32/workspace/avr-gcc-staging/label/Ubuntu14.04x64-mingw32/gcc-build/avr/avrxmega3/libgcc/../../../../gcc/libgcc/config/avr/lib1funcs.S:2484
      e8:	d1 07       	cpc	r29, r17
/home/jenkins-mingw32/workspace/avr-gcc-staging/label/Ubuntu14.04x64-mingw32/gcc-build/avr/avrxmega3/libgcc/../../../../gcc/libgcc/config/avr/lib1funcs.S:2489
      ea:	c9 f7       	brne	.-14     	; 0xde <__do_global_ctors+0x8>
../../../../crt1/gcrt1.S:314
      ec:	a4 d4       	rcall	.+2376   	; 0xa36 <main>
../../../../crt1/gcrt1.S:315
      ee:	0c 94 59 0c 	jmp	0x18b2	; 0x18b2 <__do_global_dtors>

000000f2 <__bad_interrupt>:
__vector_22():
../../../../crt1/gcrt1.S:209
      f2:	86 cf       	rjmp	.-244    	; 0x0 <__vectors>

000000f4 <digitalWrite.part.2>:
digitalWrite.part.2():
C:\Users\Vedansh\AppData\Local\Arduino15\packages\MegaCoreX\hardware\megaavr\1.1.5\cores\coreX-corefiles/wiring_digital.c:137
}

void digitalWrite(uint8_t pin, uint8_t val)
{
  /* Get bit mask for pin */
  uint8_t bit_mask = digitalPinToBitMask(pin);
      f4:	28 2f       	mov	r18, r24
      f6:	30 e0       	ldi	r19, 0x00	; 0
      f8:	f9 01       	movw	r30, r18
      fa:	eb 5b       	subi	r30, 0xBB	; 187
      fc:	f6 4a       	sbci	r31, 0xA6	; 166
      fe:	40 81       	ld	r20, Z
C:\Users\Vedansh\AppData\Local\Arduino15\packages\MegaCoreX\hardware\megaavr\1.1.5\cores\coreX-corefiles/wiring_digital.c:138
  if (bit_mask == NOT_A_PIN)
     100:	4f 3f       	cpi	r20, 0xFF	; 255
     102:	09 f4       	brne	.+2      	; 0x106 <__EEPROM_REGION_LENGTH__+0x6>
     104:	50 c0       	rjmp	.+160    	; 0x1a6 <__EEPROM_REGION_LENGTH__+0xa6>
turnOffPWM():
C:\Users\Vedansh\AppData\Local\Arduino15\packages\MegaCoreX\hardware\megaavr\1.1.5\cores\coreX-corefiles/wiring_digital.c:97
static void turnOffPWM(uint8_t pin)
{
  /* Actually turn off compare channel, not the timer */

  /* Get pin's timer */
  uint8_t timer = digitalPinToTimer(pin);
     106:	8e 32       	cpi	r24, 0x2E	; 46
     108:	58 f4       	brcc	.+22     	; 0x120 <__EEPROM_REGION_LENGTH__+0x20>
     10a:	f9 01       	movw	r30, r18
     10c:	e6 53       	subi	r30, 0x36	; 54
     10e:	f7 4a       	sbci	r31, 0xA7	; 167
     110:	e0 81       	ld	r30, Z
C:\Users\Vedansh\AppData\Local\Arduino15\packages\MegaCoreX\hardware\megaavr\1.1.5\cores\coreX-corefiles/wiring_digital.c:98
  if (timer == NOT_ON_TIMER)
     112:	ee 23       	and	r30, r30
     114:	29 f0       	breq	.+10     	; 0x120 <__EEPROM_REGION_LENGTH__+0x20>
C:\Users\Vedansh\AppData\Local\Arduino15\packages\MegaCoreX\hardware\megaavr\1.1.5\cores\coreX-corefiles/wiring_digital.c:104
    return;

  uint8_t bit_pos;
  TCB_t *timerB;

  switch (timer)
     116:	e1 30       	cpi	r30, 0x01	; 1
     118:	99 f0       	breq	.+38     	; 0x140 <__EEPROM_REGION_LENGTH__+0x40>
     11a:	10 f0       	brcs	.+4      	; 0x120 <__EEPROM_REGION_LENGTH__+0x20>
     11c:	e6 30       	cpi	r30, 0x06	; 6
     11e:	20 f1       	brcs	.+72     	; 0x168 <__EEPROM_REGION_LENGTH__+0x68>
digitalWrite.part.2():
C:\Users\Vedansh\AppData\Local\Arduino15\packages\MegaCoreX\hardware\megaavr\1.1.5\cores\coreX-corefiles/wiring_digital.c:150
  turnOffPWM(pin);

  /* Assuming the direction is already output !! */

  /* Get port */
  PORT_t *port = digitalPinToPortStruct(pin);
     120:	f9 01       	movw	r30, r18
     122:	e4 5e       	subi	r30, 0xE4	; 228
     124:	f6 4a       	sbci	r31, 0xA6	; 166
     126:	e0 81       	ld	r30, Z
     128:	a0 e2       	ldi	r26, 0x20	; 32
     12a:	ea 9f       	mul	r30, r26
     12c:	f0 01       	movw	r30, r0
     12e:	11 24       	eor	r1, r1
     130:	fc 5f       	subi	r31, 0xFC	; 252
C:\Users\Vedansh\AppData\Local\Arduino15\packages\MegaCoreX\hardware\megaavr\1.1.5\cores\coreX-corefiles/wiring_digital.c:153

  /* Output direction */
  if (port->DIR & bit_mask)
     132:	80 81       	ld	r24, Z
     134:	84 23       	and	r24, r20
     136:	21 f1       	breq	.+72     	; 0x180 <__EEPROM_REGION_LENGTH__+0x80>
C:\Users\Vedansh\AppData\Local\Arduino15\packages\MegaCoreX\hardware\megaavr\1.1.5\cores\coreX-corefiles/wiring_digital.c:156
  {
    /* Set output to value */
    if (val == LOW)
     138:	61 11       	cpse	r22, r1
     13a:	20 c0       	rjmp	.+64     	; 0x17c <__EEPROM_REGION_LENGTH__+0x7c>
C:\Users\Vedansh\AppData\Local\Arduino15\packages\MegaCoreX\hardware\megaavr\1.1.5\cores\coreX-corefiles/wiring_digital.c:158
    { /* If LOW */
      port->OUTCLR = bit_mask;
     13c:	46 83       	std	Z+6, r20	; 0x06
     13e:	08 95       	ret
turnOffPWM():
C:\Users\Vedansh\AppData\Local\Arduino15\packages\MegaCoreX\hardware\megaavr\1.1.5\cores\coreX-corefiles/wiring_digital.c:109
  switch (timer)
  {
    /* TCA0 */
    case TIMERA0:
      /* Bit position will give output channel */
      bit_pos = digitalPinToBitPosition(pin);
     140:	f9 01       	movw	r30, r18
     142:	ed 50       	subi	r30, 0x0D	; 13
     144:	f7 4a       	sbci	r31, 0xA7	; 167
     146:	50 81       	ld	r21, Z
C:\Users\Vedansh\AppData\Local\Arduino15\packages\MegaCoreX\hardware\megaavr\1.1.5\cores\coreX-corefiles/wiring_digital.c:112

      /* Disable corresponding channel */
      if (bit_pos >= 3) ++bit_pos; /* Upper 3 bits are shifted by 1 */
     148:	53 30       	cpi	r21, 0x03	; 3
     14a:	08 f0       	brcs	.+2      	; 0x14e <__EEPROM_REGION_LENGTH__+0x4e>
     14c:	5f 5f       	subi	r21, 0xFF	; 255
C:\Users\Vedansh\AppData\Local\Arduino15\packages\MegaCoreX\hardware\megaavr\1.1.5\cores\coreX-corefiles/wiring_digital.c:113
      TCA0.SPLIT.CTRLB &= ~(1 << (TCA_SPLIT_LCMP0EN_bp + bit_pos));
     14e:	70 91 01 0a 	lds	r23, 0x0A01	; 0x800a01 <__TEXT_REGION_LENGTH__+0x7f4a01>
     152:	81 e0       	ldi	r24, 0x01	; 1
     154:	90 e0       	ldi	r25, 0x00	; 0
     156:	01 c0       	rjmp	.+2      	; 0x15a <__EEPROM_REGION_LENGTH__+0x5a>
     158:	88 0f       	add	r24, r24
     15a:	5a 95       	dec	r21
     15c:	ea f7       	brpl	.-6      	; 0x158 <__EEPROM_REGION_LENGTH__+0x58>
     15e:	80 95       	com	r24
     160:	87 23       	and	r24, r23
     162:	80 93 01 0a 	sts	0x0A01, r24	; 0x800a01 <__TEXT_REGION_LENGTH__+0x7f4a01>
     166:	dc cf       	rjmp	.-72     	; 0x120 <__EEPROM_REGION_LENGTH__+0x20>
C:\Users\Vedansh\AppData\Local\Arduino15\packages\MegaCoreX\hardware\megaavr\1.1.5\cores\coreX-corefiles/wiring_digital.c:123
    case TIMERB0:
    case TIMERB1:
    case TIMERB2:
    case TIMERB3:

      timerB = (TCB_t *)&TCB0 + (timer - TIMERB0);
     168:	80 e1       	ldi	r24, 0x10	; 16
     16a:	e8 9f       	mul	r30, r24
     16c:	f0 01       	movw	r30, r0
     16e:	11 24       	eor	r1, r1
     170:	e0 5a       	subi	r30, 0xA0	; 160
     172:	f5 4f       	sbci	r31, 0xF5	; 245
C:\Users\Vedansh\AppData\Local\Arduino15\packages\MegaCoreX\hardware\megaavr\1.1.5\cores\coreX-corefiles/wiring_digital.c:126

      /* Disable TCB compare channel */
      timerB->CTRLB &= ~(TCB_CCMPEN_bm);
     174:	81 81       	ldd	r24, Z+1	; 0x01
     176:	8f 7e       	andi	r24, 0xEF	; 239
     178:	81 83       	std	Z+1, r24	; 0x01
     17a:	d2 cf       	rjmp	.-92     	; 0x120 <__EEPROM_REGION_LENGTH__+0x20>
digitalWrite.part.2():
C:\Users\Vedansh\AppData\Local\Arduino15\packages\MegaCoreX\hardware\megaavr\1.1.5\cores\coreX-corefiles/wiring_digital.c:167
      port->OUTTGL = bit_mask;
      /* If HIGH OR  > TOGGLE  */
    }
    else
    {
      port->OUTSET = bit_mask;
     17c:	45 83       	std	Z+5, r20	; 0x05
     17e:	08 95       	ret
C:\Users\Vedansh\AppData\Local\Arduino15\packages\MegaCoreX\hardware\megaavr\1.1.5\cores\coreX-corefiles/wiring_digital.c:180
    pull up is enabled if this function is called.
    Should we purposely implement this side effect?
    */

    /* Get bit position for getting pin ctrl reg */
    uint8_t bit_pos = digitalPinToBitPosition(pin);
     180:	2d 50       	subi	r18, 0x0D	; 13
     182:	37 4a       	sbci	r19, 0xA7	; 167
     184:	d9 01       	movw	r26, r18
     186:	8c 91       	ld	r24, X
C:\Users\Vedansh\AppData\Local\Arduino15\packages\MegaCoreX\hardware\megaavr\1.1.5\cores\coreX-corefiles/wiring_digital.c:183

    /* Calculate where pin control register is */
    volatile uint8_t *pin_ctrl_reg = getPINnCTRLregister(port, bit_pos);
     188:	30 97       	sbiw	r30, 0x00	; 0
     18a:	71 f0       	breq	.+28     	; 0x1a8 <__EEPROM_REGION_LENGTH__+0xa8>
     18c:	8f 3f       	cpi	r24, 0xFF	; 255
     18e:	61 f0       	breq	.+24     	; 0x1a8 <__EEPROM_REGION_LENGTH__+0xa8>
     190:	70 96       	adiw	r30, 0x10	; 16
     192:	e8 0f       	add	r30, r24
     194:	f1 1d       	adc	r31, r1
C:\Users\Vedansh\AppData\Local\Arduino15\packages\MegaCoreX\hardware\megaavr\1.1.5\cores\coreX-corefiles/wiring_digital.c:186

    /* Save system status and disable interrupts */
    uint8_t status = SREG;
     196:	9f b7       	in	r25, 0x3f	; 63
C:\Users\Vedansh\AppData\Local\Arduino15\packages\MegaCoreX\hardware\megaavr\1.1.5\cores\coreX-corefiles/wiring_digital.c:187
    cli();
     198:	f8 94       	cli
C:\Users\Vedansh\AppData\Local\Arduino15\packages\MegaCoreX\hardware\megaavr\1.1.5\cores\coreX-corefiles/wiring_digital.c:192

    if (val == LOW)
    {
      /* Disable pullup */
      *pin_ctrl_reg &= ~PORT_PULLUPEN_bm;
     19a:	80 81       	ld	r24, Z
C:\Users\Vedansh\AppData\Local\Arduino15\packages\MegaCoreX\hardware\megaavr\1.1.5\cores\coreX-corefiles/wiring_digital.c:189

    /* Save system status and disable interrupts */
    uint8_t status = SREG;
    cli();

    if (val == LOW)
     19c:	61 11       	cpse	r22, r1
     19e:	07 c0       	rjmp	.+14     	; 0x1ae <__EEPROM_REGION_LENGTH__+0xae>
C:\Users\Vedansh\AppData\Local\Arduino15\packages\MegaCoreX\hardware\megaavr\1.1.5\cores\coreX-corefiles/wiring_digital.c:192
    {
      /* Disable pullup */
      *pin_ctrl_reg &= ~PORT_PULLUPEN_bm;
     1a0:	87 7f       	andi	r24, 0xF7	; 247
C:\Users\Vedansh\AppData\Local\Arduino15\packages\MegaCoreX\hardware\megaavr\1.1.5\cores\coreX-corefiles/wiring_digital.c:197
    }
    else
    {
      /* Enable pull-up */
      *pin_ctrl_reg |= PORT_PULLUPEN_bm;
     1a2:	80 83       	st	Z, r24
C:\Users\Vedansh\AppData\Local\Arduino15\packages\MegaCoreX\hardware\megaavr\1.1.5\cores\coreX-corefiles/wiring_digital.c:201
    }

    /* Restore system status */
    SREG = status;
     1a4:	9f bf       	out	0x3f, r25	; 63
C:\Users\Vedansh\AppData\Local\Arduino15\packages\MegaCoreX\hardware\megaavr\1.1.5\cores\coreX-corefiles/wiring_digital.c:203
  }
}
     1a6:	08 95       	ret
C:\Users\Vedansh\AppData\Local\Arduino15\packages\MegaCoreX\hardware\megaavr\1.1.5\cores\coreX-corefiles/wiring_digital.c:183

    /* Get bit position for getting pin ctrl reg */
    uint8_t bit_pos = digitalPinToBitPosition(pin);

    /* Calculate where pin control register is */
    volatile uint8_t *pin_ctrl_reg = getPINnCTRLregister(port, bit_pos);
     1a8:	f0 e0       	ldi	r31, 0x00	; 0
     1aa:	e0 e0       	ldi	r30, 0x00	; 0
     1ac:	f4 cf       	rjmp	.-24     	; 0x196 <__EEPROM_REGION_LENGTH__+0x96>
C:\Users\Vedansh\AppData\Local\Arduino15\packages\MegaCoreX\hardware\megaavr\1.1.5\cores\coreX-corefiles/wiring_digital.c:197
      *pin_ctrl_reg &= ~PORT_PULLUPEN_bm;
    }
    else
    {
      /* Enable pull-up */
      *pin_ctrl_reg |= PORT_PULLUPEN_bm;
     1ae:	88 60       	ori	r24, 0x08	; 8
     1b0:	f8 cf       	rjmp	.-16     	; 0x1a2 <__EEPROM_REGION_LENGTH__+0xa2>

000001b2 <pinMode.part.1>:
pinMode.part.1():
C:\Users\Vedansh\AppData\Local\Arduino15\packages\MegaCoreX\hardware\megaavr\1.1.5\cores\coreX-corefiles/wiring_digital.c:29

#define ARDUINO_MAIN
#include "wiring_private.h"
#include "pins_arduino.h"

void pinMode(uint8_t pin, uint8_t mode)
     1b2:	cf 93       	push	r28
     1b4:	df 93       	push	r29
C:\Users\Vedansh\AppData\Local\Arduino15\packages\MegaCoreX\hardware\megaavr\1.1.5\cores\coreX-corefiles/wiring_digital.c:31
{
  uint8_t bit_mask = digitalPinToBitMask(pin);
     1b6:	90 e0       	ldi	r25, 0x00	; 0
     1b8:	fc 01       	movw	r30, r24
     1ba:	eb 5b       	subi	r30, 0xBB	; 187
     1bc:	f6 4a       	sbci	r31, 0xA6	; 166
     1be:	20 81       	ld	r18, Z
C:\Users\Vedansh\AppData\Local\Arduino15\packages\MegaCoreX\hardware\megaavr\1.1.5\cores\coreX-corefiles/wiring_digital.c:33

  if ((bit_mask == NOT_A_PIN) || (mode > INPUT_PULLUP))
     1c0:	2f 3f       	cpi	r18, 0xFF	; 255
     1c2:	69 f0       	breq	.+26     	; 0x1de <pinMode.part.1+0x2c>
C:\Users\Vedansh\AppData\Local\Arduino15\packages\MegaCoreX\hardware\megaavr\1.1.5\cores\coreX-corefiles/wiring_digital.c:36
    return;

  PORT_t *port = digitalPinToPortStruct(pin);
     1c4:	fc 01       	movw	r30, r24
     1c6:	e4 5e       	subi	r30, 0xE4	; 228
     1c8:	f6 4a       	sbci	r31, 0xA6	; 166
     1ca:	a0 81       	ld	r26, Z
     1cc:	30 e2       	ldi	r19, 0x20	; 32
     1ce:	a3 9f       	mul	r26, r19
     1d0:	d0 01       	movw	r26, r0
     1d2:	11 24       	eor	r1, r1
     1d4:	bc 5f       	subi	r27, 0xFC	; 252
C:\Users\Vedansh\AppData\Local\Arduino15\packages\MegaCoreX\hardware\megaavr\1.1.5\cores\coreX-corefiles/wiring_digital.c:40
  if (port == NULL)
    return;

  if (mode == OUTPUT)
     1d6:	61 30       	cpi	r22, 0x01	; 1
     1d8:	29 f4       	brne	.+10     	; 0x1e4 <pinMode.part.1+0x32>
C:\Users\Vedansh\AppData\Local\Arduino15\packages\MegaCoreX\hardware\megaavr\1.1.5\cores\coreX-corefiles/wiring_digital.c:43
  {
    /* Configure direction as output */
    port->DIRSET = bit_mask;
     1da:	11 96       	adiw	r26, 0x01	; 1
     1dc:	2c 93       	st	X, r18
C:\Users\Vedansh\AppData\Local\Arduino15\packages\MegaCoreX\hardware\megaavr\1.1.5\cores\coreX-corefiles/wiring_digital.c:75
    }

    /* Restore state */
    SREG = status;
  }
}
     1de:	df 91       	pop	r29
     1e0:	cf 91       	pop	r28
     1e2:	08 95       	ret
C:\Users\Vedansh\AppData\Local\Arduino15\packages\MegaCoreX\hardware\megaavr\1.1.5\cores\coreX-corefiles/wiring_digital.c:48
    port->DIRSET = bit_mask;
  }
  else
  { /* mode == INPUT or INPUT_PULLUP */

    uint8_t bit_pos = digitalPinToBitPosition(pin);
     1e4:	8d 50       	subi	r24, 0x0D	; 13
     1e6:	97 4a       	sbci	r25, 0xA7	; 167
     1e8:	ec 01       	movw	r28, r24
     1ea:	e8 81       	ld	r30, Y
C:\Users\Vedansh\AppData\Local\Arduino15\packages\MegaCoreX\hardware\megaavr\1.1.5\cores\coreX-corefiles/wiring_digital.c:50
    /* Calculate where pin control register is */
    volatile uint8_t *pin_ctrl_reg = getPINnCTRLregister(port, bit_pos);
     1ec:	ef 3f       	cpi	r30, 0xFF	; 255
     1ee:	81 f0       	breq	.+32     	; 0x210 <pinMode.part.1+0x5e>
     1f0:	cd 01       	movw	r24, r26
     1f2:	40 96       	adiw	r24, 0x10	; 16
     1f4:	e8 0f       	add	r30, r24
     1f6:	f9 2f       	mov	r31, r25
     1f8:	f1 1d       	adc	r31, r1
C:\Users\Vedansh\AppData\Local\Arduino15\packages\MegaCoreX\hardware\megaavr\1.1.5\cores\coreX-corefiles/wiring_digital.c:53

    /* Save state */
    uint8_t status = SREG;
     1fa:	9f b7       	in	r25, 0x3f	; 63
C:\Users\Vedansh\AppData\Local\Arduino15\packages\MegaCoreX\hardware\megaavr\1.1.5\cores\coreX-corefiles/wiring_digital.c:54
    cli();
     1fc:	f8 94       	cli
C:\Users\Vedansh\AppData\Local\Arduino15\packages\MegaCoreX\hardware\megaavr\1.1.5\cores\coreX-corefiles/wiring_digital.c:57

    /* Configure direction as input */
    port->DIRCLR = bit_mask;
     1fe:	12 96       	adiw	r26, 0x02	; 2
     200:	2c 93       	st	X, r18
C:\Users\Vedansh\AppData\Local\Arduino15\packages\MegaCoreX\hardware\megaavr\1.1.5\cores\coreX-corefiles/wiring_digital.c:63

    /* Configure pull-up resistor */
    if (mode == INPUT_PULLUP)
    {
      /* Enable pull-up */
      *pin_ctrl_reg |= PORT_PULLUPEN_bm;
     202:	80 81       	ld	r24, Z
C:\Users\Vedansh\AppData\Local\Arduino15\packages\MegaCoreX\hardware\megaavr\1.1.5\cores\coreX-corefiles/wiring_digital.c:60

    /* Configure direction as input */
    port->DIRCLR = bit_mask;

    /* Configure pull-up resistor */
    if (mode == INPUT_PULLUP)
     204:	62 30       	cpi	r22, 0x02	; 2
     206:	39 f4       	brne	.+14     	; 0x216 <pinMode.part.1+0x64>
C:\Users\Vedansh\AppData\Local\Arduino15\packages\MegaCoreX\hardware\megaavr\1.1.5\cores\coreX-corefiles/wiring_digital.c:63
    {
      /* Enable pull-up */
      *pin_ctrl_reg |= PORT_PULLUPEN_bm;
     208:	88 60       	ori	r24, 0x08	; 8
C:\Users\Vedansh\AppData\Local\Arduino15\packages\MegaCoreX\hardware\megaavr\1.1.5\cores\coreX-corefiles/wiring_digital.c:69
    }
    else
    { /* mode == INPUT (no pullup) */

      /* Disable pull-up */
      *pin_ctrl_reg &= ~(PORT_PULLUPEN_bm);
     20a:	80 83       	st	Z, r24
C:\Users\Vedansh\AppData\Local\Arduino15\packages\MegaCoreX\hardware\megaavr\1.1.5\cores\coreX-corefiles/wiring_digital.c:73
    }

    /* Restore state */
    SREG = status;
     20c:	9f bf       	out	0x3f, r25	; 63
     20e:	e7 cf       	rjmp	.-50     	; 0x1de <pinMode.part.1+0x2c>
C:\Users\Vedansh\AppData\Local\Arduino15\packages\MegaCoreX\hardware\megaavr\1.1.5\cores\coreX-corefiles/wiring_digital.c:50
  else
  { /* mode == INPUT or INPUT_PULLUP */

    uint8_t bit_pos = digitalPinToBitPosition(pin);
    /* Calculate where pin control register is */
    volatile uint8_t *pin_ctrl_reg = getPINnCTRLregister(port, bit_pos);
     210:	f0 e0       	ldi	r31, 0x00	; 0
     212:	e0 e0       	ldi	r30, 0x00	; 0
     214:	f2 cf       	rjmp	.-28     	; 0x1fa <pinMode.part.1+0x48>
C:\Users\Vedansh\AppData\Local\Arduino15\packages\MegaCoreX\hardware\megaavr\1.1.5\cores\coreX-corefiles/wiring_digital.c:69
    }
    else
    { /* mode == INPUT (no pullup) */

      /* Disable pull-up */
      *pin_ctrl_reg &= ~(PORT_PULLUPEN_bm);
     216:	87 7f       	andi	r24, 0xF7	; 247
     218:	f8 cf       	rjmp	.-16     	; 0x20a <pinMode.part.1+0x58>

0000021a <millis>:
millis():
C:\Users\Vedansh\AppData\Local\Arduino15\packages\MegaCoreX\hardware\megaavr\1.1.5\cores\coreX-corefiles/wiring.c:87
{
  unsigned long m;

  // disable interrupts while we read timer0_millis or we might get an
  // inconsistent value (e.g. in the middle of a write to timer_millis)
  uint8_t status = SREG;
     21a:	2f b7       	in	r18, 0x3f	; 63
C:\Users\Vedansh\AppData\Local\Arduino15\packages\MegaCoreX\hardware\megaavr\1.1.5\cores\coreX-corefiles/wiring.c:88
  cli();
     21c:	f8 94       	cli
C:\Users\Vedansh\AppData\Local\Arduino15\packages\MegaCoreX\hardware\megaavr\1.1.5\cores\coreX-corefiles/wiring.c:90

  m = timer_millis;
     21e:	60 91 0e 28 	lds	r22, 0x280E	; 0x80280e <timer_millis>
     222:	70 91 0f 28 	lds	r23, 0x280F	; 0x80280f <timer_millis+0x1>
     226:	80 91 10 28 	lds	r24, 0x2810	; 0x802810 <timer_millis+0x2>
     22a:	90 91 11 28 	lds	r25, 0x2811	; 0x802811 <timer_millis+0x3>
C:\Users\Vedansh\AppData\Local\Arduino15\packages\MegaCoreX\hardware\megaavr\1.1.5\cores\coreX-corefiles/wiring.c:92

  SREG = status;
     22e:	2f bf       	out	0x3f, r18	; 63
C:\Users\Vedansh\AppData\Local\Arduino15\packages\MegaCoreX\hardware\megaavr\1.1.5\cores\coreX-corefiles/wiring.c:95

  return m;
}
     230:	08 95       	ret

00000232 <String::StringIfHelper() const>:
StringIfHelper():
C:\Users\Vedansh\AppData\Local\Arduino15\packages\MegaCoreX\hardware\megaavr\1.1.5\cores\coreX-corefiles\api/String.h:55
{
  // use a function pointer to allow for "if (s)" without the
  // complications of an operator bool(). for more information, see:
  // http://www.artima.com/cppsource/safebool.html
  typedef void (String::*StringIfHelperType)() const;
  void StringIfHelper() const {}
     232:	08 95       	ret

00000234 <Print::write(unsigned char const*, unsigned int)>:
write():
C:\Users\Vedansh\AppData\Local\Arduino15\packages\MegaCoreX\hardware\megaavr\1.1.5\cores\coreX-corefiles\api/Print.cpp:30

// Public Methods //////////////////////////////////////////////////////////////

/* default implementation: may be overridden */
size_t Print::write(const uint8_t *buffer, size_t size)
{
     234:	af 92       	push	r10
     236:	bf 92       	push	r11
     238:	cf 92       	push	r12
     23a:	df 92       	push	r13
     23c:	ef 92       	push	r14
     23e:	ff 92       	push	r15
     240:	0f 93       	push	r16
     242:	1f 93       	push	r17
     244:	cf 93       	push	r28
     246:	df 93       	push	r29
     248:	6c 01       	movw	r12, r24
     24a:	7b 01       	movw	r14, r22
     24c:	8b 01       	movw	r16, r22
     24e:	04 0f       	add	r16, r20
     250:	15 1f       	adc	r17, r21
     252:	eb 01       	movw	r28, r22
     254:	5e 01       	movw	r10, r28
     256:	ae 18       	sub	r10, r14
     258:	bf 08       	sbc	r11, r15
C:\Users\Vedansh\AppData\Local\Arduino15\packages\MegaCoreX\hardware\megaavr\1.1.5\cores\coreX-corefiles\api/Print.cpp:32
  size_t n = 0;
  while (size--)
     25a:	c0 17       	cp	r28, r16
     25c:	d1 07       	cpc	r29, r17
     25e:	59 f0       	breq	.+22     	; 0x276 <Print::write(unsigned char const*, unsigned int)+0x42>
C:\Users\Vedansh\AppData\Local\Arduino15\packages\MegaCoreX\hardware\megaavr\1.1.5\cores\coreX-corefiles\api/Print.cpp:34
  {
    if (write(*buffer++))
     260:	69 91       	ld	r22, Y+
     262:	d6 01       	movw	r26, r12
     264:	ed 91       	ld	r30, X+
     266:	fc 91       	ld	r31, X
     268:	01 90       	ld	r0, Z+
     26a:	f0 81       	ld	r31, Z
     26c:	e0 2d       	mov	r30, r0
     26e:	c6 01       	movw	r24, r12
     270:	09 95       	icall
     272:	89 2b       	or	r24, r25
     274:	79 f7       	brne	.-34     	; 0x254 <Print::write(unsigned char const*, unsigned int)+0x20>
C:\Users\Vedansh\AppData\Local\Arduino15\packages\MegaCoreX\hardware\megaavr\1.1.5\cores\coreX-corefiles\api/Print.cpp:40
      n++;
    else
      break;
  }
  return n;
}
     276:	c5 01       	movw	r24, r10
     278:	df 91       	pop	r29
     27a:	cf 91       	pop	r28
     27c:	1f 91       	pop	r17
     27e:	0f 91       	pop	r16
     280:	ff 90       	pop	r15
     282:	ef 90       	pop	r14
     284:	df 90       	pop	r13
     286:	cf 90       	pop	r12
     288:	bf 90       	pop	r11
     28a:	af 90       	pop	r10
     28c:	08 95       	ret

0000028e <UartClass::availableForWrite()>:
availableForWrite():
C:\Users\Vedansh\AppData\Local\Arduino15\packages\MegaCoreX\hardware\megaavr\1.1.5\cores\coreX-corefiles/UART.cpp:295
  tx_buffer_index_t head;
  tx_buffer_index_t tail;

  TX_BUFFER_ATOMIC
  {
    head = _tx_buffer_head;
     28e:	fc 01       	movw	r30, r24
     290:	50 8d       	ldd	r21, Z+24	; 0x18
C:\Users\Vedansh\AppData\Local\Arduino15\packages\MegaCoreX\hardware\megaavr\1.1.5\cores\coreX-corefiles/UART.cpp:296
    tail = _tx_buffer_tail;
     292:	41 8d       	ldd	r20, Z+25	; 0x19
     294:	25 2f       	mov	r18, r21
     296:	30 e0       	ldi	r19, 0x00	; 0
     298:	84 2f       	mov	r24, r20
     29a:	90 e0       	ldi	r25, 0x00	; 0
C:\Users\Vedansh\AppData\Local\Arduino15\packages\MegaCoreX\hardware\megaavr\1.1.5\cores\coreX-corefiles/UART.cpp:298
  }
  if (head >= tail) return SERIAL_TX_BUFFER_SIZE - 1 - head + tail;
     29c:	82 1b       	sub	r24, r18
     29e:	93 0b       	sbc	r25, r19
     2a0:	54 17       	cp	r21, r20
     2a2:	10 f0       	brcs	.+4      	; 0x2a8 <UartClass::availableForWrite()+0x1a>
     2a4:	cf 96       	adiw	r24, 0x3f	; 63
     2a6:	08 95       	ret
C:\Users\Vedansh\AppData\Local\Arduino15\packages\MegaCoreX\hardware\megaavr\1.1.5\cores\coreX-corefiles/UART.cpp:299
  return tail - head - 1;
     2a8:	01 97       	sbiw	r24, 0x01	; 1
C:\Users\Vedansh\AppData\Local\Arduino15\packages\MegaCoreX\hardware\megaavr\1.1.5\cores\coreX-corefiles/UART.cpp:300
}
     2aa:	08 95       	ret

000002ac <UartClass::read()>:
read():
C:\Users\Vedansh\AppData\Local\Arduino15\packages\MegaCoreX\hardware\megaavr\1.1.5\cores\coreX-corefiles/UART.cpp:274
    return _rx_buffer[_rx_buffer_tail];
  }
}

int UartClass::read(void)
{
     2ac:	fc 01       	movw	r30, r24
C:\Users\Vedansh\AppData\Local\Arduino15\packages\MegaCoreX\hardware\megaavr\1.1.5\cores\coreX-corefiles/UART.cpp:276
  // if the head isn't ahead of the tail, we don't have any characters
  if (_rx_buffer_head == _rx_buffer_tail)
     2ae:	96 89       	ldd	r25, Z+22	; 0x16
     2b0:	87 89       	ldd	r24, Z+23	; 0x17
     2b2:	98 17       	cp	r25, r24
     2b4:	61 f0       	breq	.+24     	; 0x2ce <UartClass::read()+0x22>
C:\Users\Vedansh\AppData\Local\Arduino15\packages\MegaCoreX\hardware\megaavr\1.1.5\cores\coreX-corefiles/UART.cpp:282
  {
    return -1;
  }
  else
  {
    unsigned char c = _rx_buffer[_rx_buffer_tail];
     2b6:	a7 89       	ldd	r26, Z+23	; 0x17
     2b8:	ae 0f       	add	r26, r30
     2ba:	bf 2f       	mov	r27, r31
     2bc:	b1 1d       	adc	r27, r1
     2be:	5d 96       	adiw	r26, 0x1d	; 29
     2c0:	8c 91       	ld	r24, X
C:\Users\Vedansh\AppData\Local\Arduino15\packages\MegaCoreX\hardware\megaavr\1.1.5\cores\coreX-corefiles/UART.cpp:283
    _rx_buffer_tail = (rx_buffer_index_t)(_rx_buffer_tail + 1) % SERIAL_RX_BUFFER_SIZE;
     2c2:	97 89       	ldd	r25, Z+23	; 0x17
     2c4:	9f 5f       	subi	r25, 0xFF	; 255
     2c6:	9f 73       	andi	r25, 0x3F	; 63
     2c8:	97 8b       	std	Z+23, r25	; 0x17
C:\Users\Vedansh\AppData\Local\Arduino15\packages\MegaCoreX\hardware\megaavr\1.1.5\cores\coreX-corefiles/UART.cpp:284
    return c;
     2ca:	90 e0       	ldi	r25, 0x00	; 0
     2cc:	08 95       	ret
C:\Users\Vedansh\AppData\Local\Arduino15\packages\MegaCoreX\hardware\megaavr\1.1.5\cores\coreX-corefiles/UART.cpp:278
int UartClass::read(void)
{
  // if the head isn't ahead of the tail, we don't have any characters
  if (_rx_buffer_head == _rx_buffer_tail)
  {
    return -1;
     2ce:	8f ef       	ldi	r24, 0xFF	; 255
     2d0:	9f ef       	ldi	r25, 0xFF	; 255
C:\Users\Vedansh\AppData\Local\Arduino15\packages\MegaCoreX\hardware\megaavr\1.1.5\cores\coreX-corefiles/UART.cpp:286
  {
    unsigned char c = _rx_buffer[_rx_buffer_tail];
    _rx_buffer_tail = (rx_buffer_index_t)(_rx_buffer_tail + 1) % SERIAL_RX_BUFFER_SIZE;
    return c;
  }
}
     2d2:	08 95       	ret

000002d4 <UartClass::peek()>:
peek():
C:\Users\Vedansh\AppData\Local\Arduino15\packages\MegaCoreX\hardware\megaavr\1.1.5\cores\coreX-corefiles/UART.cpp:262
{
  return ((unsigned int)(SERIAL_RX_BUFFER_SIZE + _rx_buffer_head - _rx_buffer_tail)) % SERIAL_RX_BUFFER_SIZE;
}

int UartClass::peek(void)
{
     2d4:	fc 01       	movw	r30, r24
C:\Users\Vedansh\AppData\Local\Arduino15\packages\MegaCoreX\hardware\megaavr\1.1.5\cores\coreX-corefiles/UART.cpp:263
  if (_rx_buffer_head == _rx_buffer_tail)
     2d6:	96 89       	ldd	r25, Z+22	; 0x16
     2d8:	87 89       	ldd	r24, Z+23	; 0x17
     2da:	98 17       	cp	r25, r24
     2dc:	31 f0       	breq	.+12     	; 0x2ea <UartClass::peek()+0x16>
C:\Users\Vedansh\AppData\Local\Arduino15\packages\MegaCoreX\hardware\megaavr\1.1.5\cores\coreX-corefiles/UART.cpp:269
  {
    return -1;
  }
  else
  {
    return _rx_buffer[_rx_buffer_tail];
     2de:	87 89       	ldd	r24, Z+23	; 0x17
     2e0:	e8 0f       	add	r30, r24
     2e2:	f1 1d       	adc	r31, r1
     2e4:	85 8d       	ldd	r24, Z+29	; 0x1d
     2e6:	90 e0       	ldi	r25, 0x00	; 0
     2e8:	08 95       	ret
C:\Users\Vedansh\AppData\Local\Arduino15\packages\MegaCoreX\hardware\megaavr\1.1.5\cores\coreX-corefiles/UART.cpp:265

int UartClass::peek(void)
{
  if (_rx_buffer_head == _rx_buffer_tail)
  {
    return -1;
     2ea:	8f ef       	ldi	r24, 0xFF	; 255
     2ec:	9f ef       	ldi	r25, 0xFF	; 255
C:\Users\Vedansh\AppData\Local\Arduino15\packages\MegaCoreX\hardware\megaavr\1.1.5\cores\coreX-corefiles/UART.cpp:271
  }
  else
  {
    return _rx_buffer[_rx_buffer_tail];
  }
}
     2ee:	08 95       	ret

000002f0 <UartClass::available()>:
available():
C:\Users\Vedansh\AppData\Local\Arduino15\packages\MegaCoreX\hardware\megaavr\1.1.5\cores\coreX-corefiles/UART.cpp:257
  // Note: Does not change output pins
  _written = false;
}

int UartClass::available(void)
{
     2f0:	fc 01       	movw	r30, r24
C:\Users\Vedansh\AppData\Local\Arduino15\packages\MegaCoreX\hardware\megaavr\1.1.5\cores\coreX-corefiles/UART.cpp:258
  return ((unsigned int)(SERIAL_RX_BUFFER_SIZE + _rx_buffer_head - _rx_buffer_tail)) % SERIAL_RX_BUFFER_SIZE;
     2f2:	96 89       	ldd	r25, Z+22	; 0x16
     2f4:	27 89       	ldd	r18, Z+23	; 0x17
     2f6:	89 2f       	mov	r24, r25
     2f8:	90 e0       	ldi	r25, 0x00	; 0
     2fa:	80 5c       	subi	r24, 0xC0	; 192
     2fc:	9f 4f       	sbci	r25, 0xFF	; 255
     2fe:	82 1b       	sub	r24, r18
     300:	91 09       	sbc	r25, r1
C:\Users\Vedansh\AppData\Local\Arduino15\packages\MegaCoreX\hardware\megaavr\1.1.5\cores\coreX-corefiles/UART.cpp:259
}
     302:	8f 73       	andi	r24, 0x3F	; 63
     304:	99 27       	eor	r25, r25
     306:	08 95       	ret

00000308 <Serial0_available()>:
Serial0_available():
C:\Users\Vedansh\AppData\Local\Arduino15\packages\MegaCoreX\hardware\megaavr\1.1.5\cores\coreX-corefiles/UART0.cpp:65

// Function that can be weakly referenced by serialEventRun to prevent
// pulling in this file if it's not otherwise used.
bool Serial0_available()
{
  return Serial.available();
     308:	82 e1       	ldi	r24, 0x12	; 18
     30a:	98 e2       	ldi	r25, 0x28	; 40
     30c:	f1 df       	rcall	.-30     	; 0x2f0 <UartClass::available()>
     30e:	21 e0       	ldi	r18, 0x01	; 1
     310:	89 2b       	or	r24, r25
     312:	09 f4       	brne	.+2      	; 0x316 <Serial0_available()+0xe>
     314:	20 e0       	ldi	r18, 0x00	; 0
C:\Users\Vedansh\AppData\Local\Arduino15\packages\MegaCoreX\hardware\megaavr\1.1.5\cores\coreX-corefiles/UART0.cpp:66
}
     316:	82 2f       	mov	r24, r18
     318:	08 95       	ret

0000031a <UartClass::end()>:
end():
C:\Users\Vedansh\AppData\Local\Arduino15\packages\MegaCoreX\hardware\megaavr\1.1.5\cores\coreX-corefiles/UART.cpp:240
  // Restore SREG content
  SREG = oldSREG;
}

void UartClass::end()
{
     31a:	cf 93       	push	r28
     31c:	df 93       	push	r29
     31e:	ec 01       	movw	r28, r24
C:\Users\Vedansh\AppData\Local\Arduino15\packages\MegaCoreX\hardware\megaavr\1.1.5\cores\coreX-corefiles/UART.cpp:242
  // wait for transmission of outgoing data
  flush();
     320:	e8 81       	ld	r30, Y
     322:	f9 81       	ldd	r31, Y+1	; 0x01
     324:	06 80       	ldd	r0, Z+6	; 0x06
     326:	f7 81       	ldd	r31, Z+7	; 0x07
     328:	e0 2d       	mov	r30, r0
     32a:	09 95       	icall
C:\Users\Vedansh\AppData\Local\Arduino15\packages\MegaCoreX\hardware\megaavr\1.1.5\cores\coreX-corefiles/UART.cpp:246

  // Disable receiver and transmitter as well as the RX complete and
  // data register empty interrupts.
  (*_hwserial_module).CTRLB &= ~(USART_RXEN_bm | USART_TXEN_bm);
     32c:	ec 85       	ldd	r30, Y+12	; 0x0c
     32e:	fd 85       	ldd	r31, Y+13	; 0x0d
     330:	86 81       	ldd	r24, Z+6	; 0x06
     332:	8f 73       	andi	r24, 0x3F	; 63
     334:	86 83       	std	Z+6, r24	; 0x06
C:\Users\Vedansh\AppData\Local\Arduino15\packages\MegaCoreX\hardware\megaavr\1.1.5\cores\coreX-corefiles/UART.cpp:247
  (*_hwserial_module).CTRLA &= ~(USART_RXCIE_bm | USART_DREIE_bm);
     336:	ec 85       	ldd	r30, Y+12	; 0x0c
     338:	fd 85       	ldd	r31, Y+13	; 0x0d
     33a:	85 81       	ldd	r24, Z+5	; 0x05
     33c:	8f 75       	andi	r24, 0x5F	; 95
     33e:	85 83       	std	Z+5, r24	; 0x05
C:\Users\Vedansh\AppData\Local\Arduino15\packages\MegaCoreX\hardware\megaavr\1.1.5\cores\coreX-corefiles/UART.cpp:250

  // clear any received data
  _rx_buffer_head = _rx_buffer_tail;
     340:	8f 89       	ldd	r24, Y+23	; 0x17
     342:	8e 8b       	std	Y+22, r24	; 0x16
C:\Users\Vedansh\AppData\Local\Arduino15\packages\MegaCoreX\hardware\megaavr\1.1.5\cores\coreX-corefiles/UART.cpp:253

  // Note: Does not change output pins
  _written = false;
     344:	1d 8a       	std	Y+21, r1	; 0x15
C:\Users\Vedansh\AppData\Local\Arduino15\packages\MegaCoreX\hardware\megaavr\1.1.5\cores\coreX-corefiles/UART.cpp:254
}
     346:	df 91       	pop	r29
     348:	cf 91       	pop	r28
     34a:	08 95       	ret

0000034c <UartClass::begin(unsigned long, unsigned int)>:
begin():
C:\Users\Vedansh\AppData\Local\Arduino15\packages\MegaCoreX\hardware\megaavr\1.1.5\cores\coreX-corefiles/UART.cpp:180
    return false;
  }
}

void UartClass::begin(unsigned long baud, uint16_t config)
{
     34c:	af 92       	push	r10
     34e:	bf 92       	push	r11
     350:	cf 92       	push	r12
     352:	df 92       	push	r13
     354:	ef 92       	push	r14
     356:	ff 92       	push	r15
     358:	0f 93       	push	r16
     35a:	1f 93       	push	r17
     35c:	cf 93       	push	r28
     35e:	df 93       	push	r29
     360:	ec 01       	movw	r28, r24
     362:	6a 01       	movw	r12, r20
     364:	7b 01       	movw	r14, r22
     366:	a2 2e       	mov	r10, r18
C:\Users\Vedansh\AppData\Local\Arduino15\packages\MegaCoreX\hardware\megaavr\1.1.5\cores\coreX-corefiles/UART.cpp:183
  // Make sure no transmissions are ongoing and USART is disabled in case begin() is called by accident
  // without first calling end()
  if (_written)
     368:	8d 89       	ldd	r24, Y+21	; 0x15
     36a:	88 23       	and	r24, r24
     36c:	39 f0       	breq	.+14     	; 0x37c <UartClass::begin(unsigned long, unsigned int)+0x30>
C:\Users\Vedansh\AppData\Local\Arduino15\packages\MegaCoreX\hardware\megaavr\1.1.5\cores\coreX-corefiles/UART.cpp:185
  {
    this->end();
     36e:	e8 81       	ld	r30, Y
     370:	f9 81       	ldd	r31, Y+1	; 0x01
     372:	06 88       	ldd	r0, Z+22	; 0x16
     374:	f7 89       	ldd	r31, Z+23	; 0x17
     376:	e0 2d       	mov	r30, r0
     378:	ce 01       	movw	r24, r28
     37a:	09 95       	icall
C:\Users\Vedansh\AppData\Local\Arduino15\packages\MegaCoreX\hardware\megaavr\1.1.5\cores\coreX-corefiles/UART.cpp:188
  }

  struct UartPinSet *set = &_hw_set[_pin_set];
     37c:	0c 89       	ldd	r16, Y+20	; 0x14
     37e:	10 e0       	ldi	r17, 0x00	; 0
C:\Users\Vedansh\AppData\Local\Arduino15\packages\MegaCoreX\hardware\megaavr\1.1.5\cores\coreX-corefiles/UART.cpp:193

  int32_t baud_setting = 0;

  //Make sure global interrupts are disabled during initialization
  uint8_t oldSREG = SREG;
     380:	bf b6       	in	r11, 0x3f	; 63
C:\Users\Vedansh\AppData\Local\Arduino15\packages\MegaCoreX\hardware\megaavr\1.1.5\cores\coreX-corefiles/UART.cpp:194
  cli();
     382:	f8 94       	cli
C:\Users\Vedansh\AppData\Local\Arduino15\packages\MegaCoreX\hardware\megaavr\1.1.5\cores\coreX-corefiles/UART.cpp:196

  baud_setting = (((8 * F_CPU) / baud) + 1) / 2;
     384:	60 e0       	ldi	r22, 0x00	; 0
     386:	70 e2       	ldi	r23, 0x20	; 32
     388:	81 ea       	ldi	r24, 0xA1	; 161
     38a:	97 e0       	ldi	r25, 0x07	; 7
     38c:	a7 01       	movw	r20, r14
     38e:	96 01       	movw	r18, r12
     390:	0e 94 08 0a 	call	0x1410	; 0x1410 <__udivmodsi4>
     394:	69 01       	movw	r12, r18
     396:	7a 01       	movw	r14, r20
     398:	8f ef       	ldi	r24, 0xFF	; 255
     39a:	c8 1a       	sub	r12, r24
     39c:	d8 0a       	sbc	r13, r24
     39e:	e8 0a       	sbc	r14, r24
     3a0:	f8 0a       	sbc	r15, r24
     3a2:	f6 94       	lsr	r15
     3a4:	e7 94       	ror	r14
     3a6:	d7 94       	ror	r13
     3a8:	c7 94       	ror	r12
C:\Users\Vedansh\AppData\Local\Arduino15\packages\MegaCoreX\hardware\megaavr\1.1.5\cores\coreX-corefiles/UART.cpp:198
  // Disable CLK2X
  (*_hwserial_module).CTRLB &= (~USART_RXMODE_CLK2X_gc);
     3aa:	ec 85       	ldd	r30, Y+12	; 0x0c
     3ac:	fd 85       	ldd	r31, Y+13	; 0x0d
     3ae:	86 81       	ldd	r24, Z+6	; 0x06
     3b0:	8d 7f       	andi	r24, 0xFD	; 253
     3b2:	86 83       	std	Z+6, r24	; 0x06
C:\Users\Vedansh\AppData\Local\Arduino15\packages\MegaCoreX\hardware\megaavr\1.1.5\cores\coreX-corefiles/UART.cpp:199
  (*_hwserial_module).CTRLB |= USART_RXMODE_NORMAL_gc;
     3b4:	ec 85       	ldd	r30, Y+12	; 0x0c
     3b6:	fd 85       	ldd	r31, Y+13	; 0x0d
     3b8:	86 81       	ldd	r24, Z+6	; 0x06
     3ba:	86 83       	std	Z+6, r24	; 0x06
C:\Users\Vedansh\AppData\Local\Arduino15\packages\MegaCoreX\hardware\megaavr\1.1.5\cores\coreX-corefiles/UART.cpp:201

  _written = false;
     3bc:	1d 8a       	std	Y+21, r1	; 0x15
C:\Users\Vedansh\AppData\Local\Arduino15\packages\MegaCoreX\hardware\megaavr\1.1.5\cores\coreX-corefiles/UART.cpp:210
// Use error compensation if internal oscillator is used
#if !defined(USE_EXTERNAL_OSCILLATOR)
#if F_CPU == 20000000L
  sigrow_val = SIGROW.OSC20ERR5V;
#else
  sigrow_val = SIGROW.OSC16ERR5V;
     3be:	a0 91 23 11 	lds	r26, 0x1123	; 0x801123 <__TEXT_REGION_LENGTH__+0x7f5123>
C:\Users\Vedansh\AppData\Local\Arduino15\packages\MegaCoreX\hardware\megaavr\1.1.5\cores\coreX-corefiles/UART.cpp:214
#endif
#endif

  baud_setting += (baud_setting * sigrow_val) / 1024;
     3c2:	0a 2e       	mov	r0, r26
     3c4:	00 0c       	add	r0, r0
     3c6:	bb 0b       	sbc	r27, r27
     3c8:	a7 01       	movw	r20, r14
     3ca:	96 01       	movw	r18, r12
     3cc:	0e 94 46 0a 	call	0x148c	; 0x148c <__mulshisi3>
     3d0:	20 e0       	ldi	r18, 0x00	; 0
     3d2:	34 e0       	ldi	r19, 0x04	; 4
     3d4:	40 e0       	ldi	r20, 0x00	; 0
     3d6:	50 e0       	ldi	r21, 0x00	; 0
     3d8:	0e 94 2a 0a 	call	0x1454	; 0x1454 <__divmodsi4>
C:\Users\Vedansh\AppData\Local\Arduino15\packages\MegaCoreX\hardware\megaavr\1.1.5\cores\coreX-corefiles/UART.cpp:217

  // assign the baud_setting, a.k.a. BAUD (USART Baud Rate Register)
  (*_hwserial_module).BAUD = (uint16_t)baud_setting;
     3dc:	ec 85       	ldd	r30, Y+12	; 0x0c
     3de:	fd 85       	ldd	r31, Y+13	; 0x0d
C:\Users\Vedansh\AppData\Local\Arduino15\packages\MegaCoreX\hardware\megaavr\1.1.5\cores\coreX-corefiles/UART.cpp:214
#else
  sigrow_val = SIGROW.OSC16ERR5V;
#endif
#endif

  baud_setting += (baud_setting * sigrow_val) / 1024;
     3e0:	c2 0e       	add	r12, r18
     3e2:	d3 1e       	adc	r13, r19
     3e4:	e4 1e       	adc	r14, r20
     3e6:	f5 1e       	adc	r15, r21
C:\Users\Vedansh\AppData\Local\Arduino15\packages\MegaCoreX\hardware\megaavr\1.1.5\cores\coreX-corefiles/UART.cpp:217

  // assign the baud_setting, a.k.a. BAUD (USART Baud Rate Register)
  (*_hwserial_module).BAUD = (uint16_t)baud_setting;
     3e8:	c0 86       	std	Z+8, r12	; 0x08
     3ea:	d1 86       	std	Z+9, r13	; 0x09
C:\Users\Vedansh\AppData\Local\Arduino15\packages\MegaCoreX\hardware\megaavr\1.1.5\cores\coreX-corefiles/UART.cpp:220

  // Set USART mode of operation
  (*_hwserial_module).CTRLC = config;
     3ec:	ec 85       	ldd	r30, Y+12	; 0x0c
     3ee:	fd 85       	ldd	r31, Y+13	; 0x0d
     3f0:	a7 82       	std	Z+7, r10	; 0x07
C:\Users\Vedansh\AppData\Local\Arduino15\packages\MegaCoreX\hardware\megaavr\1.1.5\cores\coreX-corefiles/UART.cpp:223

  // Enable transmitter and receiver
  (*_hwserial_module).CTRLB |= (USART_RXEN_bm | USART_TXEN_bm);
     3f2:	ec 85       	ldd	r30, Y+12	; 0x0c
     3f4:	fd 85       	ldd	r31, Y+13	; 0x0d
     3f6:	86 81       	ldd	r24, Z+6	; 0x06
     3f8:	80 6c       	ori	r24, 0xC0	; 192
     3fa:	86 83       	std	Z+6, r24	; 0x06
C:\Users\Vedansh\AppData\Local\Arduino15\packages\MegaCoreX\hardware\megaavr\1.1.5\cores\coreX-corefiles/UART.cpp:225

  (*_hwserial_module).CTRLA |= USART_RXCIE_bm;
     3fc:	ec 85       	ldd	r30, Y+12	; 0x0c
     3fe:	fd 85       	ldd	r31, Y+13	; 0x0d
     400:	85 81       	ldd	r24, Z+5	; 0x05
     402:	80 68       	ori	r24, 0x80	; 128
     404:	85 83       	std	Z+5, r24	; 0x05
C:\Users\Vedansh\AppData\Local\Arduino15\packages\MegaCoreX\hardware\megaavr\1.1.5\cores\coreX-corefiles/UART.cpp:228

  // Let PORTMUX point to alternative UART pins as requested
  PORTMUX.USARTROUTEA = set->mux | (PORTMUX.USARTROUTEA & ~_hw_set[1].mux);
     406:	90 91 e2 05 	lds	r25, 0x05E2	; 0x8005e2 <__TEXT_REGION_LENGTH__+0x7f45e2>
     40a:	8b 89       	ldd	r24, Y+19	; 0x13
     40c:	80 95       	com	r24
     40e:	89 23       	and	r24, r25
     410:	78 01       	movw	r14, r16
     412:	ee 0c       	add	r14, r14
     414:	ff 1c       	adc	r15, r15
     416:	f7 01       	movw	r30, r14
     418:	e0 0f       	add	r30, r16
     41a:	f1 1f       	adc	r31, r17
     41c:	ec 0f       	add	r30, r28
     41e:	fd 1f       	adc	r31, r29
     420:	90 89       	ldd	r25, Z+16	; 0x10
     422:	89 2b       	or	r24, r25
     424:	80 93 e2 05 	sts	0x05E2, r24	; 0x8005e2 <__TEXT_REGION_LENGTH__+0x7f45e2>
C:\Users\Vedansh\AppData\Local\Arduino15\packages\MegaCoreX\hardware\megaavr\1.1.5\cores\coreX-corefiles/UART.cpp:231

  // Set pin state for swapped UART pins
  pinMode(set->rx_pin, INPUT_PULLUP);
     428:	86 85       	ldd	r24, Z+14	; 0x0e
pinMode():
C:\Users\Vedansh\AppData\Local\Arduino15\packages\MegaCoreX\hardware\megaavr\1.1.5\cores\coreX-corefiles/wiring_digital.c:31
#include "wiring_private.h"
#include "pins_arduino.h"

void pinMode(uint8_t pin, uint8_t mode)
{
  uint8_t bit_mask = digitalPinToBitMask(pin);
     42a:	8e 32       	cpi	r24, 0x2E	; 46
     42c:	10 f4       	brcc	.+4      	; 0x432 <__LOCK_REGION_LENGTH__+0x32>
     42e:	62 e0       	ldi	r22, 0x02	; 2
     430:	c0 de       	rcall	.-640    	; 0x1b2 <pinMode.part.1>
begin():
C:\Users\Vedansh\AppData\Local\Arduino15\packages\MegaCoreX\hardware\megaavr\1.1.5\cores\coreX-corefiles/UART.cpp:232
  digitalWrite(set->tx_pin, HIGH);
     432:	f7 01       	movw	r30, r14
     434:	e0 0f       	add	r30, r16
     436:	f1 1f       	adc	r31, r17
     438:	ec 0f       	add	r30, r28
     43a:	fd 1f       	adc	r31, r29
     43c:	87 85       	ldd	r24, Z+15	; 0x0f
digitalWrite():
C:\Users\Vedansh\AppData\Local\Arduino15\packages\MegaCoreX\hardware\megaavr\1.1.5\cores\coreX-corefiles/wiring_digital.c:137
}

void digitalWrite(uint8_t pin, uint8_t val)
{
  /* Get bit mask for pin */
  uint8_t bit_mask = digitalPinToBitMask(pin);
     43e:	8e 32       	cpi	r24, 0x2E	; 46
     440:	10 f4       	brcc	.+4      	; 0x446 <__LOCK_REGION_LENGTH__+0x46>
     442:	61 e0       	ldi	r22, 0x01	; 1
     444:	57 de       	rcall	.-850    	; 0xf4 <digitalWrite.part.2>
begin():
C:\Users\Vedansh\AppData\Local\Arduino15\packages\MegaCoreX\hardware\megaavr\1.1.5\cores\coreX-corefiles/UART.cpp:233
  pinMode(set->tx_pin, OUTPUT);
     446:	0e 0d       	add	r16, r14
     448:	1f 1d       	adc	r17, r15
     44a:	c0 0f       	add	r28, r16
     44c:	d1 1f       	adc	r29, r17
     44e:	8f 85       	ldd	r24, Y+15	; 0x0f
pinMode():
C:\Users\Vedansh\AppData\Local\Arduino15\packages\MegaCoreX\hardware\megaavr\1.1.5\cores\coreX-corefiles/wiring_digital.c:31
#include "wiring_private.h"
#include "pins_arduino.h"

void pinMode(uint8_t pin, uint8_t mode)
{
  uint8_t bit_mask = digitalPinToBitMask(pin);
     450:	8e 32       	cpi	r24, 0x2E	; 46
     452:	10 f4       	brcc	.+4      	; 0x458 <__LOCK_REGION_LENGTH__+0x58>
     454:	61 e0       	ldi	r22, 0x01	; 1
     456:	ad de       	rcall	.-678    	; 0x1b2 <pinMode.part.1>
begin():
C:\Users\Vedansh\AppData\Local\Arduino15\packages\MegaCoreX\hardware\megaavr\1.1.5\cores\coreX-corefiles/UART.cpp:236

  // Restore SREG content
  SREG = oldSREG;
     458:	bf be       	out	0x3f, r11	; 63
C:\Users\Vedansh\AppData\Local\Arduino15\packages\MegaCoreX\hardware\megaavr\1.1.5\cores\coreX-corefiles/UART.cpp:237
}
     45a:	df 91       	pop	r29
     45c:	cf 91       	pop	r28
     45e:	1f 91       	pop	r17
     460:	0f 91       	pop	r16
     462:	ff 90       	pop	r15
     464:	ef 90       	pop	r14
     466:	df 90       	pop	r13
     468:	cf 90       	pop	r12
     46a:	bf 90       	pop	r11
     46c:	af 90       	pop	r10
     46e:	08 95       	ret

00000470 <UartClass::swap(unsigned char)>:
swap():
C:\Users\Vedansh\AppData\Local\Arduino15\packages\MegaCoreX\hardware\megaavr\1.1.5\cores\coreX-corefiles/UART.cpp:161
  _pin_set = 0; // Default to standard
  return false;
}

bool UartClass::swap(uint8_t state)
{
     470:	fc 01       	movw	r30, r24
C:\Users\Vedansh\AppData\Local\Arduino15\packages\MegaCoreX\hardware\megaavr\1.1.5\cores\coreX-corefiles/UART.cpp:162
  if (state == 1) // Use alternative pin position
     472:	61 30       	cpi	r22, 0x01	; 1
     474:	19 f4       	brne	.+6      	; 0x47c <UartClass::swap(unsigned char)+0xc>
C:\Users\Vedansh\AppData\Local\Arduino15\packages\MegaCoreX\hardware\megaavr\1.1.5\cores\coreX-corefiles/UART.cpp:164
  {
    _pin_set = state;
     476:	64 8b       	std	Z+20, r22	; 0x14
C:\Users\Vedansh\AppData\Local\Arduino15\packages\MegaCoreX\hardware\megaavr\1.1.5\cores\coreX-corefiles/UART.cpp:170
    return true;
  }
  else if (state == 0) // Use default pin position
  {
    _pin_set = 0;
    return true;
     478:	81 e0       	ldi	r24, 0x01	; 1
     47a:	08 95       	ret
C:\Users\Vedansh\AppData\Local\Arduino15\packages\MegaCoreX\hardware\megaavr\1.1.5\cores\coreX-corefiles/UART.cpp:169
    _pin_set = state;
    return true;
  }
  else if (state == 0) // Use default pin position
  {
    _pin_set = 0;
     47c:	14 8a       	std	Z+20, r1	; 0x14
C:\Users\Vedansh\AppData\Local\Arduino15\packages\MegaCoreX\hardware\megaavr\1.1.5\cores\coreX-corefiles/UART.cpp:167
  if (state == 1) // Use alternative pin position
  {
    _pin_set = state;
    return true;
  }
  else if (state == 0) // Use default pin position
     47e:	66 23       	and	r22, r22
     480:	d9 f3       	breq	.-10     	; 0x478 <UartClass::swap(unsigned char)+0x8>
C:\Users\Vedansh\AppData\Local\Arduino15\packages\MegaCoreX\hardware\megaavr\1.1.5\cores\coreX-corefiles/UART.cpp:175
    return true;
  }
  else // Invalid swap value. Use default position
  {
    _pin_set = 0;
    return false;
     482:	80 e0       	ldi	r24, 0x00	; 0
C:\Users\Vedansh\AppData\Local\Arduino15\packages\MegaCoreX\hardware\megaavr\1.1.5\cores\coreX-corefiles/UART.cpp:177
  }
}
     484:	08 95       	ret

00000486 <UartClass::pins(unsigned char, unsigned char)>:
pins():
C:\Users\Vedansh\AppData\Local\Arduino15\packages\MegaCoreX\hardware\megaavr\1.1.5\cores\coreX-corefiles/UART.cpp:147

// Public Methods //////////////////////////////////////////////////////////////

// Invoke this function before 'begin' to define the pins used
bool UartClass::pins(uint8_t tx, uint8_t rx)
{
     486:	dc 01       	movw	r26, r24
C:\Users\Vedansh\AppData\Local\Arduino15\packages\MegaCoreX\hardware\megaavr\1.1.5\cores\coreX-corefiles/UART.cpp:148
  for (_pin_set = 0; _pin_set < SERIAL_PIN_SETS; ++_pin_set)
     488:	54 96       	adiw	r26, 0x14	; 20
     48a:	1c 92       	st	X, r1
     48c:	54 97       	sbiw	r26, 0x14	; 20
     48e:	54 96       	adiw	r26, 0x14	; 20
     490:	8c 91       	ld	r24, X
     492:	54 97       	sbiw	r26, 0x14	; 20
     494:	82 30       	cpi	r24, 0x02	; 2
     496:	a0 f4       	brcc	.+40     	; 0x4c0 <UartClass::pins(unsigned char, unsigned char)+0x3a>
C:\Users\Vedansh\AppData\Local\Arduino15\packages\MegaCoreX\hardware\megaavr\1.1.5\cores\coreX-corefiles/UART.cpp:150
  {
    if (tx == _hw_set[_pin_set].tx_pin && rx == _hw_set[_pin_set].rx_pin)
     498:	28 2f       	mov	r18, r24
     49a:	30 e0       	ldi	r19, 0x00	; 0
     49c:	f9 01       	movw	r30, r18
     49e:	ee 0f       	add	r30, r30
     4a0:	ff 1f       	adc	r31, r31
     4a2:	e2 0f       	add	r30, r18
     4a4:	f3 1f       	adc	r31, r19
     4a6:	ea 0f       	add	r30, r26
     4a8:	fb 1f       	adc	r31, r27
     4aa:	97 85       	ldd	r25, Z+15	; 0x0f
     4ac:	96 13       	cpse	r25, r22
     4ae:	03 c0       	rjmp	.+6      	; 0x4b6 <UartClass::pins(unsigned char, unsigned char)+0x30>
     4b0:	96 85       	ldd	r25, Z+14	; 0x0e
     4b2:	94 17       	cp	r25, r20
     4b4:	49 f0       	breq	.+18     	; 0x4c8 <UartClass::pins(unsigned char, unsigned char)+0x42>
C:\Users\Vedansh\AppData\Local\Arduino15\packages\MegaCoreX\hardware\megaavr\1.1.5\cores\coreX-corefiles/UART.cpp:148
// Public Methods //////////////////////////////////////////////////////////////

// Invoke this function before 'begin' to define the pins used
bool UartClass::pins(uint8_t tx, uint8_t rx)
{
  for (_pin_set = 0; _pin_set < SERIAL_PIN_SETS; ++_pin_set)
     4b6:	8f 5f       	subi	r24, 0xFF	; 255
     4b8:	54 96       	adiw	r26, 0x14	; 20
     4ba:	8c 93       	st	X, r24
     4bc:	54 97       	sbiw	r26, 0x14	; 20
     4be:	e7 cf       	rjmp	.-50     	; 0x48e <UartClass::pins(unsigned char, unsigned char)+0x8>
C:\Users\Vedansh\AppData\Local\Arduino15\packages\MegaCoreX\hardware\megaavr\1.1.5\cores\coreX-corefiles/UART.cpp:156
    {
      // We are good, this set of pins is supported
      return true;
    }
  }
  _pin_set = 0; // Default to standard
     4c0:	54 96       	adiw	r26, 0x14	; 20
     4c2:	1c 92       	st	X, r1
C:\Users\Vedansh\AppData\Local\Arduino15\packages\MegaCoreX\hardware\megaavr\1.1.5\cores\coreX-corefiles/UART.cpp:157
  return false;
     4c4:	80 e0       	ldi	r24, 0x00	; 0
     4c6:	08 95       	ret
C:\Users\Vedansh\AppData\Local\Arduino15\packages\MegaCoreX\hardware\megaavr\1.1.5\cores\coreX-corefiles/UART.cpp:153
  for (_pin_set = 0; _pin_set < SERIAL_PIN_SETS; ++_pin_set)
  {
    if (tx == _hw_set[_pin_set].tx_pin && rx == _hw_set[_pin_set].rx_pin)
    {
      // We are good, this set of pins is supported
      return true;
     4c8:	81 e0       	ldi	r24, 0x01	; 1
C:\Users\Vedansh\AppData\Local\Arduino15\packages\MegaCoreX\hardware\megaavr\1.1.5\cores\coreX-corefiles/UART.cpp:158
    }
  }
  _pin_set = 0; // Default to standard
  return false;
}
     4ca:	08 95       	ret

000004cc <UartClass::_tx_data_empty_irq()>:
_tx_data_empty_irq():
C:\Users\Vedansh\AppData\Local\Arduino15\packages\MegaCoreX\hardware\megaavr\1.1.5\cores\coreX-corefiles/UART.cpp:89
#endif

// Actual interrupt handlers //////////////////////////////////////////////////////////////

void UartClass::_tx_data_empty_irq(void)
{
     4cc:	cf 93       	push	r28
     4ce:	df 93       	push	r29
     4d0:	fc 01       	movw	r30, r24
C:\Users\Vedansh\AppData\Local\Arduino15\packages\MegaCoreX\hardware\megaavr\1.1.5\cores\coreX-corefiles/UART.cpp:91
  // Check if tx buffer already empty.
  if (_tx_buffer_head == _tx_buffer_tail)
     4d2:	90 8d       	ldd	r25, Z+24	; 0x18
     4d4:	81 8d       	ldd	r24, Z+25	; 0x19
     4d6:	c4 85       	ldd	r28, Z+12	; 0x0c
     4d8:	d5 85       	ldd	r29, Z+13	; 0x0d
     4da:	98 13       	cpse	r25, r24
     4dc:	06 c0       	rjmp	.+12     	; 0x4ea <UartClass::_tx_data_empty_irq()+0x1e>
C:\Users\Vedansh\AppData\Local\Arduino15\packages\MegaCoreX\hardware\megaavr\1.1.5\cores\coreX-corefiles/UART.cpp:94
  {
    // Buffer empty, so disable "data register empty" interrupt
    (*_hwserial_module).CTRLA &= (~USART_DREIE_bm);
     4de:	8d 81       	ldd	r24, Y+5	; 0x05
     4e0:	8f 7d       	andi	r24, 0xDF	; 223
     4e2:	8d 83       	std	Y+5, r24	; 0x05
C:\Users\Vedansh\AppData\Local\Arduino15\packages\MegaCoreX\hardware\megaavr\1.1.5\cores\coreX-corefiles/UART.cpp:122
    {
      CPUINT.LVL1VEC = _prev_lvl1_interrupt_vect;
      _hwserial_dre_interrupt_elevated = 0;
    }
  }
}
     4e4:	df 91       	pop	r29
     4e6:	cf 91       	pop	r28
     4e8:	08 95       	ret
C:\Users\Vedansh\AppData\Local\Arduino15\packages\MegaCoreX\hardware\megaavr\1.1.5\cores\coreX-corefiles/UART.cpp:100
    return;
  }

  // There must be more data in the output
  // buffer. Send the next byte
  unsigned char c = _tx_buffer[_tx_buffer_tail];
     4ea:	a1 8d       	ldd	r26, Z+25	; 0x19
     4ec:	ae 0f       	add	r26, r30
     4ee:	bf 2f       	mov	r27, r31
     4f0:	b1 1d       	adc	r27, r1
     4f2:	a3 5a       	subi	r26, 0xA3	; 163
     4f4:	bf 4f       	sbci	r27, 0xFF	; 255
     4f6:	2c 91       	ld	r18, X
C:\Users\Vedansh\AppData\Local\Arduino15\packages\MegaCoreX\hardware\megaavr\1.1.5\cores\coreX-corefiles/UART.cpp:101
  _tx_buffer_tail = (_tx_buffer_tail + 1) % SERIAL_TX_BUFFER_SIZE;
     4f8:	81 8d       	ldd	r24, Z+25	; 0x19
     4fa:	90 e0       	ldi	r25, 0x00	; 0
     4fc:	01 96       	adiw	r24, 0x01	; 1
     4fe:	8f 73       	andi	r24, 0x3F	; 63
     500:	99 27       	eor	r25, r25
     502:	81 8f       	std	Z+25, r24	; 0x19
C:\Users\Vedansh\AppData\Local\Arduino15\packages\MegaCoreX\hardware\megaavr\1.1.5\cores\coreX-corefiles/UART.cpp:106

  // clear the TXCIF flag -- "can be cleared by writing a one to its bit
  // location". This makes sure flush() won't return until the bytes
  // actually got written
  (*_hwserial_module).STATUS = USART_TXCIF_bm;
     504:	80 e4       	ldi	r24, 0x40	; 64
     506:	8c 83       	std	Y+4, r24	; 0x04
C:\Users\Vedansh\AppData\Local\Arduino15\packages\MegaCoreX\hardware\megaavr\1.1.5\cores\coreX-corefiles/UART.cpp:108

  (*_hwserial_module).TXDATAL = c;
     508:	a4 85       	ldd	r26, Z+12	; 0x0c
     50a:	b5 85       	ldd	r27, Z+13	; 0x0d
     50c:	12 96       	adiw	r26, 0x02	; 2
     50e:	2c 93       	st	X, r18
C:\Users\Vedansh\AppData\Local\Arduino15\packages\MegaCoreX\hardware\megaavr\1.1.5\cores\coreX-corefiles/UART.cpp:110

  if (_tx_buffer_head == _tx_buffer_tail)
     510:	90 8d       	ldd	r25, Z+24	; 0x18
     512:	81 8d       	ldd	r24, Z+25	; 0x19
     514:	98 13       	cpse	r25, r24
     516:	e6 cf       	rjmp	.-52     	; 0x4e4 <UartClass::_tx_data_empty_irq()+0x18>
C:\Users\Vedansh\AppData\Local\Arduino15\packages\MegaCoreX\hardware\megaavr\1.1.5\cores\coreX-corefiles/UART.cpp:113
  {
    // Buffer empty, so disable "data register empty" interrupt
    (*_hwserial_module).CTRLA &= (~USART_DREIE_bm);
     518:	a4 85       	ldd	r26, Z+12	; 0x0c
     51a:	b5 85       	ldd	r27, Z+13	; 0x0d
     51c:	15 96       	adiw	r26, 0x05	; 5
     51e:	8c 91       	ld	r24, X
     520:	15 97       	sbiw	r26, 0x05	; 5
     522:	8f 7d       	andi	r24, 0xDF	; 223
     524:	15 96       	adiw	r26, 0x05	; 5
     526:	8c 93       	st	X, r24
C:\Users\Vedansh\AppData\Local\Arduino15\packages\MegaCoreX\hardware\megaavr\1.1.5\cores\coreX-corefiles/UART.cpp:116

    //Take the DRE interrupt back no normal priority level if it has been elevated
    if (_hwserial_dre_interrupt_elevated)
     528:	83 8d       	ldd	r24, Z+27	; 0x1b
     52a:	88 23       	and	r24, r24
     52c:	d9 f2       	breq	.-74     	; 0x4e4 <UartClass::_tx_data_empty_irq()+0x18>
C:\Users\Vedansh\AppData\Local\Arduino15\packages\MegaCoreX\hardware\megaavr\1.1.5\cores\coreX-corefiles/UART.cpp:118
    {
      CPUINT.LVL1VEC = _prev_lvl1_interrupt_vect;
     52e:	84 8d       	ldd	r24, Z+28	; 0x1c
     530:	80 93 13 01 	sts	0x0113, r24	; 0x800113 <__TEXT_REGION_LENGTH__+0x7f4113>
C:\Users\Vedansh\AppData\Local\Arduino15\packages\MegaCoreX\hardware\megaavr\1.1.5\cores\coreX-corefiles/UART.cpp:119
      _hwserial_dre_interrupt_elevated = 0;
     534:	13 8e       	std	Z+27, r1	; 0x1b
     536:	d6 cf       	rjmp	.-84     	; 0x4e4 <UartClass::_tx_data_empty_irq()+0x18>

00000538 <UartClass::_poll_tx_data_empty()>:
_poll_tx_data_empty():
C:\Users\Vedansh\AppData\Local\Arduino15\packages\MegaCoreX\hardware\megaavr\1.1.5\cores\coreX-corefiles/UART.cpp:126
  }
}

// To invoke data empty "interrupt" via a call, use this method
void UartClass::_poll_tx_data_empty(void)
{
     538:	dc 01       	movw	r26, r24
     53a:	1c 96       	adiw	r26, 0x0c	; 12
     53c:	ed 91       	ld	r30, X+
     53e:	fc 91       	ld	r31, X
C:\Users\Vedansh\AppData\Local\Arduino15\packages\MegaCoreX\hardware\megaavr\1.1.5\cores\coreX-corefiles/UART.cpp:127
  if ((!(SREG & CPU_I_bm)) || (!((*_hwserial_module).CTRLA & USART_DREIE_bm)))
     540:	0f b6       	in	r0, 0x3f	; 63
     542:	07 fe       	sbrs	r0, 7
     544:	03 c0       	rjmp	.+6      	; 0x54c <UartClass::_poll_tx_data_empty()+0x14>
     546:	25 81       	ldd	r18, Z+5	; 0x05
     548:	25 fd       	sbrc	r18, 5
C:\Users\Vedansh\AppData\Local\Arduino15\packages\MegaCoreX\hardware\megaavr\1.1.5\cores\coreX-corefiles/UART.cpp:135
    // so we'll have to poll the "data register empty" flag ourselves.
    // If it is set, pretend an interrupt has happened and call the handler
    // to free up space for us.

    // Invoke interrupt handler only if conditions data register is empty
    if ((*_hwserial_module).STATUS & USART_DREIF_bm)
     54a:	03 c0       	rjmp	.+6      	; 0x552 <UartClass::_poll_tx_data_empty()+0x1a>
     54c:	24 81       	ldd	r18, Z+4	; 0x04
C:\Users\Vedansh\AppData\Local\Arduino15\packages\MegaCoreX\hardware\megaavr\1.1.5\cores\coreX-corefiles/UART.cpp:137
    {
      _tx_data_empty_irq();
     54e:	25 fd       	sbrc	r18, 5
     550:	bd cf       	rjmp	.-134    	; 0x4cc <UartClass::_tx_data_empty_irq()>
C:\Users\Vedansh\AppData\Local\Arduino15\packages\MegaCoreX\hardware\megaavr\1.1.5\cores\coreX-corefiles/UART.cpp:141
    }
  }
  // In case interrupts are enabled, the interrupt routine will be invoked by itself
}
     552:	08 95       	ret

00000554 <UartClass::write(unsigned char)>:
write():
C:\Users\Vedansh\AppData\Local\Arduino15\packages\MegaCoreX\hardware\megaavr\1.1.5\cores\coreX-corefiles/UART.cpp:336
  // If we get here, nothing is queued anymore (DREIE is disabled) and
  // the hardware finished transmission (TXCIF is set).
}

size_t UartClass::write(uint8_t c)
{
     554:	ef 92       	push	r14
     556:	ff 92       	push	r15
     558:	0f 93       	push	r16
     55a:	1f 93       	push	r17
     55c:	cf 93       	push	r28
     55e:	df 93       	push	r29
     560:	ec 01       	movw	r28, r24
C:\Users\Vedansh\AppData\Local\Arduino15\packages\MegaCoreX\hardware\megaavr\1.1.5\cores\coreX-corefiles/UART.cpp:337
  _written = true;
     562:	81 e0       	ldi	r24, 0x01	; 1
     564:	8d 8b       	std	Y+21, r24	; 0x15
C:\Users\Vedansh\AppData\Local\Arduino15\packages\MegaCoreX\hardware\megaavr\1.1.5\cores\coreX-corefiles/UART.cpp:343

  // If the buffer and the data register is empty, just write the byte
  // to the data register and be done. This shortcut helps
  // significantly improve the effective data rate at high (>
  // 500kbit/s) bit rates, where interrupt overhead becomes a slowdown.
  if ((_tx_buffer_head == _tx_buffer_tail) && ((*_hwserial_module).STATUS & USART_DREIF_bm))
     566:	98 8d       	ldd	r25, Y+24	; 0x18
     568:	89 8d       	ldd	r24, Y+25	; 0x19
     56a:	98 13       	cpse	r25, r24
     56c:	1c c0       	rjmp	.+56     	; 0x5a6 <UartClass::write(unsigned char)+0x52>
     56e:	ac 85       	ldd	r26, Y+12	; 0x0c
     570:	bd 85       	ldd	r27, Y+13	; 0x0d
     572:	14 96       	adiw	r26, 0x04	; 4
     574:	8c 91       	ld	r24, X
     576:	14 97       	sbiw	r26, 0x04	; 4
     578:	85 ff       	sbrs	r24, 5
     57a:	15 c0       	rjmp	.+42     	; 0x5a6 <UartClass::write(unsigned char)+0x52>
C:\Users\Vedansh\AppData\Local\Arduino15\packages\MegaCoreX\hardware\megaavr\1.1.5\cores\coreX-corefiles/UART.cpp:345
  {
    (*_hwserial_module).TXDATAL = c;
     57c:	12 96       	adiw	r26, 0x02	; 2
     57e:	6c 93       	st	X, r22
C:\Users\Vedansh\AppData\Local\Arduino15\packages\MegaCoreX\hardware\megaavr\1.1.5\cores\coreX-corefiles/UART.cpp:346
    (*_hwserial_module).STATUS = USART_TXCIF_bm;
     580:	ac 85       	ldd	r26, Y+12	; 0x0c
     582:	bd 85       	ldd	r27, Y+13	; 0x0d
     584:	80 e4       	ldi	r24, 0x40	; 64
     586:	14 96       	adiw	r26, 0x04	; 4
     588:	8c 93       	st	X, r24
C:\Users\Vedansh\AppData\Local\Arduino15\packages\MegaCoreX\hardware\megaavr\1.1.5\cores\coreX-corefiles/UART.cpp:350

    // Make sure data register empty interrupt is disabled to avoid
    // that the interrupt handler is called in this situation
    (*_hwserial_module).CTRLA &= (~USART_DREIE_bm);
     58a:	ec 85       	ldd	r30, Y+12	; 0x0c
     58c:	fd 85       	ldd	r31, Y+13	; 0x0d
     58e:	85 81       	ldd	r24, Z+5	; 0x05
     590:	8f 7d       	andi	r24, 0xDF	; 223
C:\Users\Vedansh\AppData\Local\Arduino15\packages\MegaCoreX\hardware\megaavr\1.1.5\cores\coreX-corefiles/UART.cpp:380

  _tx_buffer[_tx_buffer_head] = c;
  _tx_buffer_head = i;

  // Enable data "register empty interrupt"
  (*_hwserial_module).CTRLA |= USART_DREIE_bm;
     592:	85 83       	std	Z+5, r24	; 0x05
C:\Users\Vedansh\AppData\Local\Arduino15\packages\MegaCoreX\hardware\megaavr\1.1.5\cores\coreX-corefiles/UART.cpp:383

  return 1;
}
     594:	81 e0       	ldi	r24, 0x01	; 1
     596:	90 e0       	ldi	r25, 0x00	; 0
     598:	df 91       	pop	r29
     59a:	cf 91       	pop	r28
     59c:	1f 91       	pop	r17
     59e:	0f 91       	pop	r16
     5a0:	ff 90       	pop	r15
     5a2:	ef 90       	pop	r14
     5a4:	08 95       	ret
C:\Users\Vedansh\AppData\Local\Arduino15\packages\MegaCoreX\hardware\megaavr\1.1.5\cores\coreX-corefiles/UART.cpp:357
    return 1;
  }

  //Check if we are inside an ISR already (could be from by a source other than UART),
  // in which case the UART ISRs will be blocked.
  if (CPUINT.STATUS & CPUINT_LVL0EX_bm)
     5a6:	80 91 11 01 	lds	r24, 0x0111	; 0x800111 <__TEXT_REGION_LENGTH__+0x7f4111>
     5aa:	80 ff       	sbrs	r24, 0
     5ac:	08 c0       	rjmp	.+16     	; 0x5be <UartClass::write(unsigned char)+0x6a>
C:\Users\Vedansh\AppData\Local\Arduino15\packages\MegaCoreX\hardware\megaavr\1.1.5\cores\coreX-corefiles/UART.cpp:361
  {
    //Elevate the priority level of the Data Register Empty Interrupt vector
    //and copy whatever vector number that might be in the register already.
    _prev_lvl1_interrupt_vect = CPUINT.LVL1VEC;
     5ae:	80 91 13 01 	lds	r24, 0x0113	; 0x800113 <__TEXT_REGION_LENGTH__+0x7f4113>
     5b2:	8c 8f       	std	Y+28, r24	; 0x1c
C:\Users\Vedansh\AppData\Local\Arduino15\packages\MegaCoreX\hardware\megaavr\1.1.5\cores\coreX-corefiles/UART.cpp:362
    CPUINT.LVL1VEC = _hwserial_dre_interrupt_vect_num;
     5b4:	8a 8d       	ldd	r24, Y+26	; 0x1a
     5b6:	80 93 13 01 	sts	0x0113, r24	; 0x800113 <__TEXT_REGION_LENGTH__+0x7f4113>
C:\Users\Vedansh\AppData\Local\Arduino15\packages\MegaCoreX\hardware\megaavr\1.1.5\cores\coreX-corefiles/UART.cpp:364

    _hwserial_dre_interrupt_elevated = 1;
     5ba:	81 e0       	ldi	r24, 0x01	; 1
     5bc:	8b 8f       	std	Y+27, r24	; 0x1b
     5be:	f6 2e       	mov	r15, r22
C:\Users\Vedansh\AppData\Local\Arduino15\packages\MegaCoreX\hardware\megaavr\1.1.5\cores\coreX-corefiles/UART.cpp:367
  }

  tx_buffer_index_t i = (_tx_buffer_head + 1) % SERIAL_TX_BUFFER_SIZE;
     5c0:	08 8d       	ldd	r16, Y+24	; 0x18
     5c2:	10 e0       	ldi	r17, 0x00	; 0
     5c4:	0f 5f       	subi	r16, 0xFF	; 255
     5c6:	1f 4f       	sbci	r17, 0xFF	; 255
     5c8:	0f 73       	andi	r16, 0x3F	; 63
     5ca:	11 27       	eor	r17, r17
C:\Users\Vedansh\AppData\Local\Arduino15\packages\MegaCoreX\hardware\megaavr\1.1.5\cores\coreX-corefiles/UART.cpp:371

  //If the output buffer is full, there's nothing for it other than to
  //wait for the interrupt handler to empty it a bit (or emulate interrupts)
  while (i == _tx_buffer_tail)
     5cc:	e0 2e       	mov	r14, r16
     5ce:	89 8d       	ldd	r24, Y+25	; 0x19
     5d0:	8e 11       	cpse	r24, r14
C:\Users\Vedansh\AppData\Local\Arduino15\packages\MegaCoreX\hardware\megaavr\1.1.5\cores\coreX-corefiles/UART.cpp:373
  {
    _poll_tx_data_empty();
     5d2:	03 c0       	rjmp	.+6      	; 0x5da <UartClass::write(unsigned char)+0x86>
     5d4:	ce 01       	movw	r24, r28
     5d6:	b0 df       	rcall	.-160    	; 0x538 <UartClass::_poll_tx_data_empty()>
     5d8:	fa cf       	rjmp	.-12     	; 0x5ce <UartClass::write(unsigned char)+0x7a>
C:\Users\Vedansh\AppData\Local\Arduino15\packages\MegaCoreX\hardware\megaavr\1.1.5\cores\coreX-corefiles/UART.cpp:376
  }

  _tx_buffer[_tx_buffer_head] = c;
     5da:	e8 8d       	ldd	r30, Y+24	; 0x18
     5dc:	ec 0f       	add	r30, r28
     5de:	fd 2f       	mov	r31, r29
     5e0:	f1 1d       	adc	r31, r1
     5e2:	e3 5a       	subi	r30, 0xA3	; 163
     5e4:	ff 4f       	sbci	r31, 0xFF	; 255
     5e6:	f0 82       	st	Z, r15
C:\Users\Vedansh\AppData\Local\Arduino15\packages\MegaCoreX\hardware\megaavr\1.1.5\cores\coreX-corefiles/UART.cpp:377
  _tx_buffer_head = i;
     5e8:	08 8f       	std	Y+24, r16	; 0x18
C:\Users\Vedansh\AppData\Local\Arduino15\packages\MegaCoreX\hardware\megaavr\1.1.5\cores\coreX-corefiles/UART.cpp:380

  // Enable data "register empty interrupt"
  (*_hwserial_module).CTRLA |= USART_DREIE_bm;
     5ea:	ec 85       	ldd	r30, Y+12	; 0x0c
     5ec:	fd 85       	ldd	r31, Y+13	; 0x0d
     5ee:	85 81       	ldd	r24, Z+5	; 0x05
     5f0:	80 62       	ori	r24, 0x20	; 32
C:\Users\Vedansh\AppData\Local\Arduino15\packages\MegaCoreX\hardware\megaavr\1.1.5\cores\coreX-corefiles\api/Print.cpp:74
  return write(str);
}

size_t Print::print(char c)
{
  return write(c);
     5f2:	cf cf       	rjmp	.-98     	; 0x592 <UartClass::write(unsigned char)+0x3e>

000005f4 <Print::print(char) [clone .constprop.25]>:
print():
     5f4:	68 2f       	mov	r22, r24
     5f6:	82 e1       	ldi	r24, 0x12	; 18
     5f8:	98 e2       	ldi	r25, 0x28	; 40
     5fa:	ac cf       	rjmp	.-168    	; 0x554 <UartClass::write(unsigned char)>

000005fc <UartClass::flush()>:
flush():
C:\Users\Vedansh\AppData\Local\Arduino15\packages\MegaCoreX\hardware\megaavr\1.1.5\cores\coreX-corefiles/UART.cpp:303
  if (head >= tail) return SERIAL_TX_BUFFER_SIZE - 1 - head + tail;
  return tail - head - 1;
}

void UartClass::flush()
{
     5fc:	cf 93       	push	r28
     5fe:	df 93       	push	r29
C:\Users\Vedansh\AppData\Local\Arduino15\packages\MegaCoreX\hardware\megaavr\1.1.5\cores\coreX-corefiles/UART.cpp:307
  // If we have never written a byte, no need to flush. This special
  // case is needed since there is no way to force the TXCIF (transmit
  // complete) bit to 1 during initialization
  if (!_written)
     600:	fc 01       	movw	r30, r24
     602:	25 89       	ldd	r18, Z+21	; 0x15
     604:	22 23       	and	r18, r18
     606:	c1 f0       	breq	.+48     	; 0x638 <UartClass::flush()+0x3c>
     608:	ec 01       	movw	r28, r24
C:\Users\Vedansh\AppData\Local\Arduino15\packages\MegaCoreX\hardware\megaavr\1.1.5\cores\coreX-corefiles/UART.cpp:314
    return;
  }

  //Check if we are inside an ISR already (e.g. connected to a different peripheral then UART), in which case the UART ISRs will not be called.
  //Temporarily elevate the DRE interrupt to allow it to run.
  if (CPUINT.STATUS & CPUINT_LVL0EX_bm)
     60a:	80 91 11 01 	lds	r24, 0x0111	; 0x800111 <__TEXT_REGION_LENGTH__+0x7f4111>
     60e:	80 ff       	sbrs	r24, 0
     610:	08 c0       	rjmp	.+16     	; 0x622 <UartClass::flush()+0x26>
C:\Users\Vedansh\AppData\Local\Arduino15\packages\MegaCoreX\hardware\megaavr\1.1.5\cores\coreX-corefiles/UART.cpp:318
  {
    //Elevate the priority level of the Data Register Empty Interrupt vector
    //and copy whatever vector number that might be in the register already.
    _prev_lvl1_interrupt_vect = CPUINT.LVL1VEC;
     612:	80 91 13 01 	lds	r24, 0x0113	; 0x800113 <__TEXT_REGION_LENGTH__+0x7f4113>
     616:	84 8f       	std	Z+28, r24	; 0x1c
C:\Users\Vedansh\AppData\Local\Arduino15\packages\MegaCoreX\hardware\megaavr\1.1.5\cores\coreX-corefiles/UART.cpp:319
    CPUINT.LVL1VEC = _hwserial_dre_interrupt_vect_num;
     618:	82 8d       	ldd	r24, Z+26	; 0x1a
     61a:	80 93 13 01 	sts	0x0113, r24	; 0x800113 <__TEXT_REGION_LENGTH__+0x7f4113>
C:\Users\Vedansh\AppData\Local\Arduino15\packages\MegaCoreX\hardware\megaavr\1.1.5\cores\coreX-corefiles/UART.cpp:321

    _hwserial_dre_interrupt_elevated = 1;
     61e:	81 e0       	ldi	r24, 0x01	; 1
     620:	83 8f       	std	Z+27, r24	; 0x1b
C:\Users\Vedansh\AppData\Local\Arduino15\packages\MegaCoreX\hardware\megaavr\1.1.5\cores\coreX-corefiles/UART.cpp:325
  }

  // Spin until the data-register-empty-interrupt is disabled and TX complete interrupt flag is raised
  while (((*_hwserial_module).CTRLA & USART_DREIE_bm) || (!((*_hwserial_module).STATUS & USART_TXCIF_bm)))
     622:	ec 85       	ldd	r30, Y+12	; 0x0c
     624:	fd 85       	ldd	r31, Y+13	; 0x0d
     626:	85 81       	ldd	r24, Z+5	; 0x05
     628:	85 fd       	sbrc	r24, 5
     62a:	03 c0       	rjmp	.+6      	; 0x632 <UartClass::flush()+0x36>
     62c:	84 81       	ldd	r24, Z+4	; 0x04
     62e:	86 fd       	sbrc	r24, 6
C:\Users\Vedansh\AppData\Local\Arduino15\packages\MegaCoreX\hardware\megaavr\1.1.5\cores\coreX-corefiles/UART.cpp:329
  {
    // If interrupts are globally disabled or the and DR empty interrupt is disabled,
    // poll the "data register empty" interrupt flag to prevent deadlock
    _poll_tx_data_empty();
     630:	03 c0       	rjmp	.+6      	; 0x638 <UartClass::flush()+0x3c>
     632:	ce 01       	movw	r24, r28
     634:	81 df       	rcall	.-254    	; 0x538 <UartClass::_poll_tx_data_empty()>
C:\Users\Vedansh\AppData\Local\Arduino15\packages\MegaCoreX\hardware\megaavr\1.1.5\cores\coreX-corefiles/UART.cpp:333
  }
  // If we get here, nothing is queued anymore (DREIE is disabled) and
  // the hardware finished transmission (TXCIF is set).
}
     636:	f5 cf       	rjmp	.-22     	; 0x622 <UartClass::flush()+0x26>
     638:	df 91       	pop	r29
     63a:	cf 91       	pop	r28
C:\Users\Vedansh\AppData\Local\Arduino15\packages\MegaCoreX\hardware\megaavr\1.1.5\cores\coreX-corefiles/UART.cpp:66
#endif

void serialEventRun(void)
{
#if defined(HAVE_HWSERIAL0)
  if (Serial0_available && serialEvent && Serial0_available()) serialEvent();
     63c:	08 95       	ret

0000063e <serialEventRun()>:
serialEventRun():
     63e:	80 e0       	ldi	r24, 0x00	; 0
     640:	90 e0       	ldi	r25, 0x00	; 0
     642:	89 2b       	or	r24, r25
     644:	21 f0       	breq	.+8      	; 0x64e <serialEventRun()+0x10>
     646:	60 de       	rcall	.-832    	; 0x308 <Serial0_available()>
     648:	81 11       	cpse	r24, r1
     64a:	0e 94 00 00 	call	0	; 0x0 <__vectors>
C:\Users\Vedansh\AppData\Local\Arduino15\packages\MegaCoreX\hardware\megaavr\1.1.5\cores\coreX-corefiles/UART.cpp:69
#endif
#if defined(HAVE_HWSERIAL1)
  if (Serial1_available && serialEvent1 && Serial1_available()) serialEvent1();
     64e:	80 e0       	ldi	r24, 0x00	; 0
     650:	90 e0       	ldi	r25, 0x00	; 0
     652:	89 2b       	or	r24, r25
     654:	49 f0       	breq	.+18     	; 0x668 <serialEventRun()+0x2a>
     656:	80 e0       	ldi	r24, 0x00	; 0
     658:	90 e0       	ldi	r25, 0x00	; 0
     65a:	89 2b       	or	r24, r25
     65c:	29 f0       	breq	.+10     	; 0x668 <serialEventRun()+0x2a>
     65e:	0e 94 00 00 	call	0	; 0x0 <__vectors>
     662:	81 11       	cpse	r24, r1
     664:	0e 94 00 00 	call	0	; 0x0 <__vectors>
C:\Users\Vedansh\AppData\Local\Arduino15\packages\MegaCoreX\hardware\megaavr\1.1.5\cores\coreX-corefiles/UART.cpp:72
#endif
#if defined(HAVE_HWSERIAL2)
  if (Serial2_available && serialEvent2 && Serial2_available()) serialEvent2();
     668:	80 e0       	ldi	r24, 0x00	; 0
     66a:	90 e0       	ldi	r25, 0x00	; 0
     66c:	89 2b       	or	r24, r25
     66e:	49 f0       	breq	.+18     	; 0x682 <serialEventRun()+0x44>
     670:	80 e0       	ldi	r24, 0x00	; 0
     672:	90 e0       	ldi	r25, 0x00	; 0
     674:	89 2b       	or	r24, r25
     676:	29 f0       	breq	.+10     	; 0x682 <serialEventRun()+0x44>
     678:	0e 94 00 00 	call	0	; 0x0 <__vectors>
     67c:	81 11       	cpse	r24, r1
     67e:	0e 94 00 00 	call	0	; 0x0 <__vectors>
C:\Users\Vedansh\AppData\Local\Arduino15\packages\MegaCoreX\hardware\megaavr\1.1.5\cores\coreX-corefiles/UART.cpp:75
#endif
#if defined(HAVE_HWSERIAL3)
  if (Serial3_available && serialEvent3 && Serial3_available()) serialEvent3();
     682:	80 e0       	ldi	r24, 0x00	; 0
     684:	90 e0       	ldi	r25, 0x00	; 0
     686:	89 2b       	or	r24, r25
     688:	49 f0       	breq	.+18     	; 0x69c <serialEventRun()+0x5e>
     68a:	80 e0       	ldi	r24, 0x00	; 0
     68c:	90 e0       	ldi	r25, 0x00	; 0
     68e:	89 2b       	or	r24, r25
     690:	29 f0       	breq	.+10     	; 0x69c <serialEventRun()+0x5e>
     692:	0e 94 00 00 	call	0	; 0x0 <__vectors>
     696:	81 11       	cpse	r24, r1
     698:	0c 94 00 00 	jmp	0	; 0x0 <__vectors>
C:\Users\Vedansh\AppData\Local\Arduino15\packages\MegaCoreX\hardware\megaavr\1.1.5\cores\coreX-corefiles/UART.cpp:77
#endif
}
     69c:	08 95       	ret

0000069e <UartClass::operator bool()>:
operator 3():
C:\Users\Vedansh\AppData\Local\Arduino15\packages\MegaCoreX\hardware\megaavr\1.1.5\cores\coreX-corefiles/UART.h:174
    inline size_t write(unsigned long n) { return write((uint8_t)n); }
    inline size_t write(long n) { return write((uint8_t)n); }
    inline size_t write(unsigned int n) { return write((uint8_t)n); }
    inline size_t write(int n) { return write((uint8_t)n); }
    using Print::write; // pull in write(str) and write(buf, size) from Print
    explicit operator bool() { return true; }
     69e:	81 e0       	ldi	r24, 0x01	; 1
     6a0:	08 95       	ret

000006a2 <UartClass::begin(unsigned long)>:
begin():
C:\Users\Vedansh\AppData\Local\Arduino15\packages\MegaCoreX\hardware\megaavr\1.1.5\cores\coreX-corefiles/UART.h:160

  public:
    inline UartClass(volatile USART_t *hwserial_module, uint8_t hwserial_rx_pin, uint8_t hwserial_tx_pin, uint8_t hwserial_rx_pin_swap, uint8_t hwserial_tx_pin_swap, uint8_t dre_vect_num, uint8_t uart_mux, uint8_t uart_mux_swap);
    bool pins(uint8_t tx, uint8_t rx);
    bool swap(uint8_t state = 1);
    void begin(unsigned long baud) { begin(baud, SERIAL_8N1); }
     6a2:	dc 01       	movw	r26, r24
     6a4:	ed 91       	ld	r30, X+
     6a6:	fc 91       	ld	r31, X
     6a8:	04 88       	ldd	r0, Z+20	; 0x14
     6aa:	f5 89       	ldd	r31, Z+21	; 0x15
     6ac:	e0 2d       	mov	r30, r0
     6ae:	23 e0       	ldi	r18, 0x03	; 3
     6b0:	30 e0       	ldi	r19, 0x00	; 0
     6b2:	09 94       	ijmp

000006b4 <Print::write(char const*) [clone .part.2] [clone .constprop.27]>:
_ZN5Print5writeEPKc.part.2():
C:\Users\Vedansh\AppData\Local\Arduino15\packages\MegaCoreX\hardware\megaavr\1.1.5\cores\coreX-corefiles\api/Print.h:49
    void clearWriteError() { setWriteError(0); }

    virtual size_t write(uint8_t) = 0;
    size_t write(const char *str) {
      if (str == NULL) return 0;
      return write((const uint8_t *)str, strlen(str));
     6b4:	fc 01       	movw	r30, r24
     6b6:	01 90       	ld	r0, Z+
     6b8:	00 20       	and	r0, r0
     6ba:	e9 f7       	brne	.-6      	; 0x6b6 <Print::write(char const*) [clone .part.2] [clone .constprop.27]+0x2>
     6bc:	31 97       	sbiw	r30, 0x01	; 1
     6be:	af 01       	movw	r20, r30
     6c0:	48 1b       	sub	r20, r24
     6c2:	59 0b       	sbc	r21, r25
     6c4:	bc 01       	movw	r22, r24
     6c6:	82 e1       	ldi	r24, 0x12	; 18
     6c8:	98 e2       	ldi	r25, 0x28	; 40
     6ca:	b4 cd       	rjmp	.-1176   	; 0x234 <Print::write(unsigned char const*, unsigned int)>

000006cc <Print::printNumber(unsigned long, unsigned char) [clone .constprop.21]>:
printNumber():
C:\Users\Vedansh\AppData\Local\Arduino15\packages\MegaCoreX\hardware\megaavr\1.1.5\cores\coreX-corefiles\api/Print.cpp:245
  return vfprintf_P(&f, (const char *)format, ap);
}

// Private Methods /////////////////////////////////////////////////////////////

size_t Print::printNumber(unsigned long n, uint8_t base)
     6cc:	8f 92       	push	r8
     6ce:	9f 92       	push	r9
     6d0:	af 92       	push	r10
     6d2:	bf 92       	push	r11
     6d4:	0f 93       	push	r16
     6d6:	1f 93       	push	r17
     6d8:	cf 93       	push	r28
     6da:	df 93       	push	r29
     6dc:	cd b7       	in	r28, 0x3d	; 61
     6de:	de b7       	in	r29, 0x3e	; 62
     6e0:	a1 97       	sbiw	r28, 0x21	; 33
     6e2:	cd bf       	out	0x3d, r28	; 61
     6e4:	de bf       	out	0x3e, r29	; 62
C:\Users\Vedansh\AppData\Local\Arduino15\packages\MegaCoreX\hardware\megaavr\1.1.5\cores\coreX-corefiles\api/Print.cpp:250
{
  char buf[8 * sizeof(long) + 1]; // Assumes 8-bit chars plus zero byte.
  char *str = &buf[sizeof(buf) - 1];

  *str = '\0';
     6e6:	19 a2       	std	Y+33, r1	; 0x21
C:\Users\Vedansh\AppData\Local\Arduino15\packages\MegaCoreX\hardware\megaavr\1.1.5\cores\coreX-corefiles\api/Print.cpp:253

  // prevent crash if called with base == 1
  if (base < 2) base = 10;
     6e8:	42 30       	cpi	r20, 0x02	; 2
     6ea:	08 f4       	brcc	.+2      	; 0x6ee <Print::printNumber(unsigned long, unsigned char) [clone .constprop.21]+0x22>
     6ec:	4a e0       	ldi	r20, 0x0A	; 10
     6ee:	8e 01       	movw	r16, r28
     6f0:	0f 5d       	subi	r16, 0xDF	; 223
C:\Users\Vedansh\AppData\Local\Arduino15\packages\MegaCoreX\hardware\megaavr\1.1.5\cores\coreX-corefiles\api/Print.cpp:257

  do
  {
    char c = n % base;
     6f2:	1f 4f       	sbci	r17, 0xFF	; 255
     6f4:	84 2e       	mov	r8, r20
     6f6:	91 2c       	mov	r9, r1
     6f8:	b1 2c       	mov	r11, r1
     6fa:	a1 2c       	mov	r10, r1
     6fc:	a5 01       	movw	r20, r10
     6fe:	94 01       	movw	r18, r8
     700:	87 d6       	rcall	.+3342   	; 0x1410 <__udivmodsi4>
     702:	e6 2f       	mov	r30, r22
C:\Users\Vedansh\AppData\Local\Arduino15\packages\MegaCoreX\hardware\megaavr\1.1.5\cores\coreX-corefiles\api/Print.cpp:258
    n /= base;
     704:	b9 01       	movw	r22, r18
     706:	ca 01       	movw	r24, r20
C:\Users\Vedansh\AppData\Local\Arduino15\packages\MegaCoreX\hardware\megaavr\1.1.5\cores\coreX-corefiles\api/Print.cpp:260

    *--str = c < 10 ? c + '0' : c + 'A' - 10;
     708:	ea 30       	cpi	r30, 0x0A	; 10
     70a:	d4 f4       	brge	.+52     	; 0x740 <Print::printNumber(unsigned long, unsigned char) [clone .constprop.21]+0x74>
     70c:	e0 5d       	subi	r30, 0xD0	; 208
     70e:	d8 01       	movw	r26, r16
     710:	ee 93       	st	-X, r30
C:\Users\Vedansh\AppData\Local\Arduino15\packages\MegaCoreX\hardware\megaavr\1.1.5\cores\coreX-corefiles\api/Print.cpp:261
  } while (n);
     712:	8d 01       	movw	r16, r26
     714:	23 2b       	or	r18, r19
     716:	24 2b       	or	r18, r20
     718:	25 2b       	or	r18, r21
C:\Users\Vedansh\AppData\Local\Arduino15\packages\MegaCoreX\hardware\megaavr\1.1.5\cores\coreX-corefiles\api/Print.h:48
    int getWriteError() { return write_error; }
    void clearWriteError() { setWriteError(0); }

    virtual size_t write(uint8_t) = 0;
    size_t write(const char *str) {
      if (str == NULL) return 0;
     71a:	81 f7       	brne	.-32     	; 0x6fc <Print::printNumber(unsigned long, unsigned char) [clone .constprop.21]+0x30>
     71c:	90 e0       	ldi	r25, 0x00	; 0
     71e:	80 e0       	ldi	r24, 0x00	; 0
write():
     720:	10 97       	sbiw	r26, 0x00	; 0
     722:	11 f0       	breq	.+4      	; 0x728 <Print::printNumber(unsigned long, unsigned char) [clone .constprop.21]+0x5c>
     724:	cd 01       	movw	r24, r26
     726:	c6 df       	rcall	.-116    	; 0x6b4 <Print::write(char const*) [clone .part.2] [clone .constprop.27]>
printNumber():
C:\Users\Vedansh\AppData\Local\Arduino15\packages\MegaCoreX\hardware\megaavr\1.1.5\cores\coreX-corefiles\api/Print.cpp:264

  return write(str);
}
     728:	a1 96       	adiw	r28, 0x21	; 33
     72a:	cd bf       	out	0x3d, r28	; 61
     72c:	de bf       	out	0x3e, r29	; 62
     72e:	df 91       	pop	r29
     730:	cf 91       	pop	r28
     732:	1f 91       	pop	r17
     734:	0f 91       	pop	r16
     736:	bf 90       	pop	r11
C:\Users\Vedansh\AppData\Local\Arduino15\packages\MegaCoreX\hardware\megaavr\1.1.5\cores\coreX-corefiles\api/Print.cpp:260
  do
  {
    char c = n % base;
    n /= base;

    *--str = c < 10 ? c + '0' : c + 'A' - 10;
     738:	af 90       	pop	r10
     73a:	9f 90       	pop	r9
C:\Users\Vedansh\AppData\Local\Arduino15\packages\MegaCoreX\hardware\megaavr\1.1.5\cores\coreX-corefiles\api/Print.cpp:67
size_t Print::print(const String &s)
{
  return write(s.c_str(), s.length());
}

size_t Print::print(const char str[])
     73c:	8f 90       	pop	r8
D:\MSDA\Multi-Sensor-Data-Aggregator\MSDA_Firmware_USB/MSDA_Firmware_USB.ino:34
}

void sendHeartbeat() { sendMsg("HEARTBEAT", "OK"); }

void sendInventory() {
  Serial.print("<INVENTORY|"); Serial.print(millis());
     73e:	08 95       	ret
     740:	e9 5c       	subi	r30, 0xC9	; 201
     742:	e5 cf       	rjmp	.-54     	; 0x70e <Print::printNumber(unsigned long, unsigned char) [clone .constprop.21]+0x42>

00000744 <Print::print(char const*) [clone .constprop.22]>:
write():
     744:	b7 cf       	rjmp	.-146    	; 0x6b4 <Print::write(char const*) [clone .part.2] [clone .constprop.27]>

00000746 <sendInventory()>:
sendInventory():
     746:	8c e8       	ldi	r24, 0x8C	; 140
     748:	99 e5       	ldi	r25, 0x59	; 89
C:\Users\Vedansh\AppData\Local\Arduino15\packages\MegaCoreX\hardware\megaavr\1.1.5\cores\coreX-corefiles\api/Print.cpp:119
size_t Print::print(unsigned long n, int base)
{
  if (base == 0)
    return write(n);
  else
    return printNumber(n, base);
     74a:	fc df       	rcall	.-8      	; 0x744 <Print::print(char const*) [clone .constprop.22]>
     74c:	66 dd       	rcall	.-1332   	; 0x21a <millis>
print():
D:\MSDA\Multi-Sensor-Data-Aggregator\MSDA_Firmware_USB/MSDA_Firmware_USB.ino:35
  Serial.print("|1|HC_SR04:distance>");
     74e:	4a e0       	ldi	r20, 0x0A	; 10
     750:	bd df       	rcall	.-134    	; 0x6cc <Print::printNumber(unsigned long, unsigned char) [clone .constprop.21]>
sendInventory():
     752:	88 e9       	ldi	r24, 0x98	; 152
     754:	99 e5       	ldi	r25, 0x59	; 89
     756:	f6 df       	rcall	.-20     	; 0x744 <Print::print(char const*) [clone .constprop.22]>
write():
D:\MSDA\Multi-Sensor-Data-Aggregator\MSDA_Firmware_USB/MSDA_Firmware_USB.ino:25
unsigned long tLastHeartbeat   = 0;

String cmdBuf = "";

// ── Protocol helpers ──────────────────────────────────────────────
void sendMsg(const char* type, const char* content) {
     758:	8d ea       	ldi	r24, 0xAD	; 173
     75a:	99 e5       	ldi	r25, 0x59	; 89
     75c:	ab cf       	rjmp	.-170    	; 0x6b4 <Print::write(char const*) [clone .part.2] [clone .constprop.27]>

0000075e <sendMsg(char const*, char const*)>:
sendMsg():
     75e:	0f 93       	push	r16
D:\MSDA\Multi-Sensor-Data-Aggregator\MSDA_Firmware_USB/MSDA_Firmware_USB.ino:26
  Serial.print('<'); Serial.print(type); Serial.print('|');
     760:	1f 93       	push	r17
     762:	cf 93       	push	r28
     764:	df 93       	push	r29
     766:	8c 01       	movw	r16, r24
     768:	eb 01       	movw	r28, r22
     76a:	8c e3       	ldi	r24, 0x3C	; 60
     76c:	43 df       	rcall	.-378    	; 0x5f4 <Print::print(char) [clone .constprop.25]>
     76e:	c8 01       	movw	r24, r16
D:\MSDA\Multi-Sensor-Data-Aggregator\MSDA_Firmware_USB/MSDA_Firmware_USB.ino:27
  Serial.print(millis()); Serial.print('|');
     770:	e9 df       	rcall	.-46     	; 0x744 <Print::print(char const*) [clone .constprop.22]>
     772:	8c e7       	ldi	r24, 0x7C	; 124
C:\Users\Vedansh\AppData\Local\Arduino15\packages\MegaCoreX\hardware\megaavr\1.1.5\cores\coreX-corefiles\api/Print.cpp:119
     774:	3f df       	rcall	.-386    	; 0x5f4 <Print::print(char) [clone .constprop.25]>
     776:	51 dd       	rcall	.-1374   	; 0x21a <millis>
print():
     778:	4a e0       	ldi	r20, 0x0A	; 10
D:\MSDA\Multi-Sensor-Data-Aggregator\MSDA_Firmware_USB/MSDA_Firmware_USB.ino:27
     77a:	a8 df       	rcall	.-176    	; 0x6cc <Print::printNumber(unsigned long, unsigned char) [clone .constprop.21]>
sendMsg():
     77c:	8c e7       	ldi	r24, 0x7C	; 124
     77e:	3a df       	rcall	.-396    	; 0x5f4 <Print::print(char) [clone .constprop.25]>
D:\MSDA\Multi-Sensor-Data-Aggregator\MSDA_Firmware_USB/MSDA_Firmware_USB.ino:28
  Serial.print(content); Serial.println('>');
     780:	ce 01       	movw	r24, r28
     782:	e0 df       	rcall	.-64     	; 0x744 <Print::print(char const*) [clone .constprop.22]>
println():
     784:	8e e3       	ldi	r24, 0x3E	; 62
C:\Users\Vedansh\AppData\Local\Arduino15\packages\MegaCoreX\hardware\megaavr\1.1.5\cores\coreX-corefiles\api/Print.cpp:160
  return n;
}

size_t Print::println(char c)
{
  size_t n = print(c);
     786:	36 df       	rcall	.-404    	; 0x5f4 <Print::print(char) [clone .constprop.25]>
write():
     788:	8d ea       	ldi	r24, 0xAD	; 173
     78a:	99 e5       	ldi	r25, 0x59	; 89
sendMsg():
     78c:	df 91       	pop	r29
     78e:	cf 91       	pop	r28
D:\MSDA\Multi-Sensor-Data-Aggregator\MSDA_Firmware_USB/MSDA_Firmware_USB.ino:29
}
     790:	1f 91       	pop	r17
     792:	0f 91       	pop	r16
write():
     794:	8f cf       	rjmp	.-226    	; 0x6b4 <Print::write(char const*) [clone .part.2] [clone .constprop.27]>

00000796 <String::reserve(unsigned int)>:
reserve():
     796:	0f 93       	push	r16
     798:	1f 93       	push	r17
C:\Users\Vedansh\AppData\Local\Arduino15\packages\MegaCoreX\hardware\megaavr\1.1.5\cores\coreX-corefiles\api/String.cpp:148
  buffer = NULL;
  capacity = len = 0;
}

unsigned char String::reserve(unsigned int size)
{
     79a:	cf 93       	push	r28
     79c:	df 93       	push	r29
     79e:	ec 01       	movw	r28, r24
     7a0:	88 81       	ld	r24, Y
     7a2:	99 81       	ldd	r25, Y+1	; 0x01
C:\Users\Vedansh\AppData\Local\Arduino15\packages\MegaCoreX\hardware\megaavr\1.1.5\cores\coreX-corefiles\api/String.cpp:149
  if (buffer && capacity >= size) return 1;
     7a4:	00 97       	sbiw	r24, 0x00	; 0
     7a6:	59 f0       	breq	.+22     	; 0x7be <String::reserve(unsigned int)+0x28>
     7a8:	2a 81       	ldd	r18, Y+2	; 0x02
     7aa:	3b 81       	ldd	r19, Y+3	; 0x03
     7ac:	26 17       	cp	r18, r22
     7ae:	37 07       	cpc	r19, r23
     7b0:	30 f0       	brcs	.+12     	; 0x7be <String::reserve(unsigned int)+0x28>
     7b2:	81 e0       	ldi	r24, 0x01	; 1
     7b4:	df 91       	pop	r29
C:\Users\Vedansh\AppData\Local\Arduino15\packages\MegaCoreX\hardware\megaavr\1.1.5\cores\coreX-corefiles\api/String.cpp:152
  if (changeBuffer(size))
  {
    if (len == 0) buffer[0] = 0;
     7b6:	cf 91       	pop	r28
C:\Users\Vedansh\AppData\Local\Arduino15\packages\MegaCoreX\hardware\megaavr\1.1.5\cores\coreX-corefiles\api/String.cpp:156
    return 1;
  }
  return 0;
}
     7b8:	1f 91       	pop	r17
     7ba:	0f 91       	pop	r16
     7bc:	08 95       	ret
     7be:	8b 01       	movw	r16, r22
changeBuffer():
     7c0:	6f 5f       	subi	r22, 0xFF	; 255
     7c2:	7f 4f       	sbci	r23, 0xFF	; 255
C:\Users\Vedansh\AppData\Local\Arduino15\packages\MegaCoreX\hardware\megaavr\1.1.5\cores\coreX-corefiles\api/String.cpp:160

unsigned char String::changeBuffer(unsigned int maxStrLen)
{
  char *newbuffer = (char *)realloc(buffer, maxStrLen + 1);
     7c4:	94 d7       	rcall	.+3880   	; 0x16ee <realloc>
     7c6:	00 97       	sbiw	r24, 0x00	; 0
     7c8:	59 f0       	breq	.+22     	; 0x7e0 <String::reserve(unsigned int)+0x4a>
C:\Users\Vedansh\AppData\Local\Arduino15\packages\MegaCoreX\hardware\megaavr\1.1.5\cores\coreX-corefiles\api/String.cpp:161
  if (newbuffer)
     7ca:	88 83       	st	Y, r24
     7cc:	99 83       	std	Y+1, r25	; 0x01
C:\Users\Vedansh\AppData\Local\Arduino15\packages\MegaCoreX\hardware\megaavr\1.1.5\cores\coreX-corefiles\api/String.cpp:163
  {
    buffer = newbuffer;
     7ce:	0a 83       	std	Y+2, r16	; 0x02
     7d0:	1b 83       	std	Y+3, r17	; 0x03
reserve():
C:\Users\Vedansh\AppData\Local\Arduino15\packages\MegaCoreX\hardware\megaavr\1.1.5\cores\coreX-corefiles\api/String.cpp:164
    capacity = maxStrLen;
     7d2:	2c 81       	ldd	r18, Y+4	; 0x04
     7d4:	3d 81       	ldd	r19, Y+5	; 0x05
C:\Users\Vedansh\AppData\Local\Arduino15\packages\MegaCoreX\hardware\megaavr\1.1.5\cores\coreX-corefiles\api/String.cpp:152
unsigned char String::reserve(unsigned int size)
{
  if (buffer && capacity >= size) return 1;
  if (changeBuffer(size))
  {
    if (len == 0) buffer[0] = 0;
     7d6:	23 2b       	or	r18, r19
     7d8:	61 f7       	brne	.-40     	; 0x7b2 <String::reserve(unsigned int)+0x1c>
     7da:	fc 01       	movw	r30, r24
     7dc:	10 82       	st	Z, r1
     7de:	e9 cf       	rjmp	.-46     	; 0x7b2 <String::reserve(unsigned int)+0x1c>
     7e0:	80 e0       	ldi	r24, 0x00	; 0
C:\Users\Vedansh\AppData\Local\Arduino15\packages\MegaCoreX\hardware\megaavr\1.1.5\cores\coreX-corefiles\api/String.cpp:155
    return 1;
  }
  return 0;
     7e2:	e8 cf       	rjmp	.-48     	; 0x7b4 <String::reserve(unsigned int)+0x1e>

000007e4 <String::copy(char const*, unsigned int)>:
copy():
     7e4:	ef 92       	push	r14
C:\Users\Vedansh\AppData\Local\Arduino15\packages\MegaCoreX\hardware\megaavr\1.1.5\cores\coreX-corefiles\api/String.cpp:175
/*********************************************/
/*  Copy and Move                            */
/*********************************************/

String &String::copy(const char *cstr, unsigned int length)
{
     7e6:	ff 92       	push	r15
     7e8:	0f 93       	push	r16
     7ea:	1f 93       	push	r17
     7ec:	cf 93       	push	r28
     7ee:	df 93       	push	r29
     7f0:	ec 01       	movw	r28, r24
     7f2:	7b 01       	movw	r14, r22
     7f4:	8a 01       	movw	r16, r20
     7f6:	ba 01       	movw	r22, r20
C:\Users\Vedansh\AppData\Local\Arduino15\packages\MegaCoreX\hardware\megaavr\1.1.5\cores\coreX-corefiles\api/String.cpp:176
  if (!reserve(length))
     7f8:	ce df       	rcall	.-100    	; 0x796 <String::reserve(unsigned int)>
     7fa:	28 81       	ld	r18, Y
     7fc:	39 81       	ldd	r19, Y+1	; 0x01
     7fe:	81 11       	cpse	r24, r1
     800:	13 c0       	rjmp	.+38     	; 0x828 <String::copy(char const*, unsigned int)+0x44>
invalidate():
     802:	21 15       	cp	r18, r1
     804:	31 05       	cpc	r19, r1
C:\Users\Vedansh\AppData\Local\Arduino15\packages\MegaCoreX\hardware\megaavr\1.1.5\cores\coreX-corefiles\api/String.cpp:142
  len = 0;
}

void String::invalidate(void)
{
  if (buffer) free(buffer);
     806:	11 f0       	breq	.+4      	; 0x80c <String::copy(char const*, unsigned int)+0x28>
     808:	c9 01       	movw	r24, r18
     80a:	e8 d6       	rcall	.+3536   	; 0x15dc <free>
     80c:	18 82       	st	Y, r1
     80e:	19 82       	std	Y+1, r1	; 0x01
     810:	1c 82       	std	Y+4, r1	; 0x04
C:\Users\Vedansh\AppData\Local\Arduino15\packages\MegaCoreX\hardware\megaavr\1.1.5\cores\coreX-corefiles\api/String.cpp:143
  buffer = NULL;
     812:	1d 82       	std	Y+5, r1	; 0x05
C:\Users\Vedansh\AppData\Local\Arduino15\packages\MegaCoreX\hardware\megaavr\1.1.5\cores\coreX-corefiles\api/String.cpp:144
  capacity = len = 0;
     814:	1a 82       	std	Y+2, r1	; 0x02
     816:	1b 82       	std	Y+3, r1	; 0x03
copy():
     818:	ce 01       	movw	r24, r28
     81a:	df 91       	pop	r29
C:\Users\Vedansh\AppData\Local\Arduino15\packages\MegaCoreX\hardware\megaavr\1.1.5\cores\coreX-corefiles\api/String.cpp:184
    return *this;
  }
  len = length;
  strcpy(buffer, cstr);
  return *this;
}
     81c:	cf 91       	pop	r28
     81e:	1f 91       	pop	r17
     820:	0f 91       	pop	r16
     822:	ff 90       	pop	r15
     824:	ef 90       	pop	r14
     826:	08 95       	ret
     828:	0c 83       	std	Y+4, r16	; 0x04
     82a:	1d 83       	std	Y+5, r17	; 0x05
C:\Users\Vedansh\AppData\Local\Arduino15\packages\MegaCoreX\hardware\megaavr\1.1.5\cores\coreX-corefiles\api/String.cpp:181
  if (!reserve(length))
  {
    invalidate();
    return *this;
  }
  len = length;
     82c:	b7 01       	movw	r22, r14
     82e:	c9 01       	movw	r24, r18
C:\Users\Vedansh\AppData\Local\Arduino15\packages\MegaCoreX\hardware\megaavr\1.1.5\cores\coreX-corefiles\api/String.cpp:182
  strcpy(buffer, cstr);
     830:	0e 94 52 0c 	call	0x18a4	; 0x18a4 <strcpy>
     834:	f1 cf       	rjmp	.-30     	; 0x818 <String::copy(char const*, unsigned int)+0x34>

00000836 <String::operator=(char const*) [clone .part.3]>:
_ZN6StringaSEPKc.part.3():
     836:	fb 01       	movw	r30, r22
     838:	01 90       	ld	r0, Z+
C:\Users\Vedansh\AppData\Local\Arduino15\packages\MegaCoreX\hardware\megaavr\1.1.5\cores\coreX-corefiles\api/String.cpp:253
#endif

String &String::operator=(const char *cstr)
{
  if (cstr)
    copy(cstr, strlen(cstr));
     83a:	00 20       	and	r0, r0
     83c:	e9 f7       	brne	.-6      	; 0x838 <String::operator=(char const*) [clone .part.3]+0x2>
     83e:	31 97       	sbiw	r30, 0x01	; 1
     840:	af 01       	movw	r20, r30
     842:	46 1b       	sub	r20, r22
     844:	57 0b       	sbc	r21, r23
     846:	ce cf       	rjmp	.-100    	; 0x7e4 <String::copy(char const*, unsigned int)>

00000848 <__vector_36>:
__vector_36():
     848:	1f 92       	push	r1
     84a:	0f 92       	push	r0
     84c:	0f b6       	in	r0, 0x3f	; 63
C:\Users\Vedansh\AppData\Local\Arduino15\packages\MegaCoreX\hardware\megaavr\1.1.5\cores\coreX-corefiles/wiring.c:74
#elif defined(MILLIS_USE_TIMERB2)
ISR(TCB2_INT_vect)
#else // fallback or defined(MILLIS_USE_TIMERB3)
ISR(TCB3_INT_vect)
#endif
{
     84e:	0f 92       	push	r0
     850:	11 24       	eor	r1, r1
     852:	8f 93       	push	r24
     854:	9f 93       	push	r25
     856:	af 93       	push	r26
     858:	bf 93       	push	r27
     85a:	80 91 0e 28 	lds	r24, 0x280E	; 0x80280e <timer_millis>
     85e:	90 91 0f 28 	lds	r25, 0x280F	; 0x80280f <timer_millis+0x1>
C:\Users\Vedansh\AppData\Local\Arduino15\packages\MegaCoreX\hardware\megaavr\1.1.5\cores\coreX-corefiles/wiring.c:75
  timer_millis++;
     862:	a0 91 10 28 	lds	r26, 0x2810	; 0x802810 <timer_millis+0x2>
     866:	b0 91 11 28 	lds	r27, 0x2811	; 0x802811 <timer_millis+0x3>
     86a:	01 96       	adiw	r24, 0x01	; 1
     86c:	a1 1d       	adc	r26, r1
     86e:	b1 1d       	adc	r27, r1
     870:	80 93 0e 28 	sts	0x280E, r24	; 0x80280e <timer_millis>
     874:	90 93 0f 28 	sts	0x280F, r25	; 0x80280f <timer_millis+0x1>
     878:	a0 93 10 28 	sts	0x2810, r26	; 0x802810 <timer_millis+0x2>
     87c:	b0 93 11 28 	sts	0x2811, r27	; 0x802811 <timer_millis+0x3>
     880:	81 e0       	ldi	r24, 0x01	; 1
     882:	80 93 b6 0a 	sts	0x0AB6, r24	; 0x800ab6 <__TEXT_REGION_LENGTH__+0x7f4ab6>
C:\Users\Vedansh\AppData\Local\Arduino15\packages\MegaCoreX\hardware\megaavr\1.1.5\cores\coreX-corefiles/wiring.c:78

  /* Clear flag */
  _timer->INTFLAGS = TCB_CAPT_bm;
     886:	bf 91       	pop	r27
     888:	af 91       	pop	r26
C:\Users\Vedansh\AppData\Local\Arduino15\packages\MegaCoreX\hardware\megaavr\1.1.5\cores\coreX-corefiles/wiring.c:79
}
     88a:	9f 91       	pop	r25
     88c:	8f 91       	pop	r24
     88e:	0f 90       	pop	r0
     890:	0f be       	out	0x3f, r0	; 63
     892:	0f 90       	pop	r0
     894:	1f 90       	pop	r1
     896:	18 95       	reti

00000898 <__vector_38>:
__vector_38():
     898:	1f 92       	push	r1
     89a:	0f 92       	push	r0
C:\Users\Vedansh\AppData\Local\Arduino15\packages\MegaCoreX\hardware\megaavr\1.1.5\cores\coreX-corefiles/UART0.cpp:50
#error "Don't know what the Data Received interrupt vector is called for Serial"
#endif

#if defined(HWSERIAL0_DRE_VECTOR)
ISR(HWSERIAL0_DRE_VECTOR)
{
     89c:	0f b6       	in	r0, 0x3f	; 63
     89e:	0f 92       	push	r0
     8a0:	11 24       	eor	r1, r1
     8a2:	2f 93       	push	r18
     8a4:	3f 93       	push	r19
     8a6:	4f 93       	push	r20
     8a8:	5f 93       	push	r21
     8aa:	6f 93       	push	r22
     8ac:	7f 93       	push	r23
     8ae:	8f 93       	push	r24
     8b0:	9f 93       	push	r25
     8b2:	af 93       	push	r26
     8b4:	bf 93       	push	r27
     8b6:	ef 93       	push	r30
     8b8:	ff 93       	push	r31
     8ba:	82 e1       	ldi	r24, 0x12	; 18
     8bc:	98 e2       	ldi	r25, 0x28	; 40
C:\Users\Vedansh\AppData\Local\Arduino15\packages\MegaCoreX\hardware\megaavr\1.1.5\cores\coreX-corefiles/UART0.cpp:51
  Serial._tx_data_empty_irq();
     8be:	06 de       	rcall	.-1012   	; 0x4cc <UartClass::_tx_data_empty_irq()>
     8c0:	ff 91       	pop	r31
     8c2:	ef 91       	pop	r30
     8c4:	bf 91       	pop	r27
C:\Users\Vedansh\AppData\Local\Arduino15\packages\MegaCoreX\hardware\megaavr\1.1.5\cores\coreX-corefiles/UART0.cpp:52
}
     8c6:	af 91       	pop	r26
     8c8:	9f 91       	pop	r25
     8ca:	8f 91       	pop	r24
     8cc:	7f 91       	pop	r23
     8ce:	6f 91       	pop	r22
     8d0:	5f 91       	pop	r21
     8d2:	4f 91       	pop	r20
     8d4:	3f 91       	pop	r19
     8d6:	2f 91       	pop	r18
     8d8:	0f 90       	pop	r0
     8da:	0f be       	out	0x3f, r0	; 63
     8dc:	0f 90       	pop	r0
     8de:	1f 90       	pop	r1
     8e0:	18 95       	reti

000008e2 <__vector_37>:
__vector_37():
     8e2:	1f 92       	push	r1
     8e4:	0f 92       	push	r0
     8e6:	0f b6       	in	r0, 0x3f	; 63
C:\Users\Vedansh\AppData\Local\Arduino15\packages\MegaCoreX\hardware\megaavr\1.1.5\cores\coreX-corefiles/UART0.cpp:41

#if defined(HAVE_HWSERIAL0)

#if defined(HWSERIAL0_RXC_VECTOR)
ISR(HWSERIAL0_RXC_VECTOR)
{
     8e8:	0f 92       	push	r0
     8ea:	11 24       	eor	r1, r1
     8ec:	2f 93       	push	r18
     8ee:	8f 93       	push	r24
     8f0:	9f 93       	push	r25
     8f2:	ef 93       	push	r30
     8f4:	ff 93       	push	r31
_rx_complete_irq():
     8f6:	e0 91 1e 28 	lds	r30, 0x281E	; 0x80281e <Serial+0xc>
     8fa:	f0 91 1f 28 	lds	r31, 0x281F	; 0x80281f <Serial+0xd>
C:\Users\Vedansh\AppData\Local\Arduino15\packages\MegaCoreX\hardware\megaavr\1.1.5\cores\coreX-corefiles/UART_private.h:59
// Actual interrupt handlers //////////////////////////////////////////////////////////////

void UartClass::_rx_complete_irq(void)
{
  //if (bit_is_clear(*_rxdatah, USART_PERR_bp)) {
  if (!(((*_hwserial_module).RXDATAH) & USART_PERR_bm)) {
     8fe:	81 81       	ldd	r24, Z+1	; 0x01
     900:	81 fd       	sbrc	r24, 1
     902:	1b c0       	rjmp	.+54     	; 0x93a <__vector_37+0x58>
     904:	90 81       	ld	r25, Z
     906:	80 91 28 28 	lds	r24, 0x2828	; 0x802828 <Serial+0x16>
C:\Users\Vedansh\AppData\Local\Arduino15\packages\MegaCoreX\hardware\megaavr\1.1.5\cores\coreX-corefiles/UART_private.h:62
    // No Parity error, read byte and store it in the buffer if there is
    // room
    unsigned char c = (*_hwserial_module).RXDATAL;
     90a:	8f 5f       	subi	r24, 0xFF	; 255
C:\Users\Vedansh\AppData\Local\Arduino15\packages\MegaCoreX\hardware\megaavr\1.1.5\cores\coreX-corefiles/UART_private.h:63
    rx_buffer_index_t i = (unsigned int)(_rx_buffer_head + 1) % SERIAL_RX_BUFFER_SIZE;
     90c:	8f 73       	andi	r24, 0x3F	; 63
     90e:	20 91 29 28 	lds	r18, 0x2829	; 0x802829 <Serial+0x17>
     912:	82 17       	cp	r24, r18
C:\Users\Vedansh\AppData\Local\Arduino15\packages\MegaCoreX\hardware\megaavr\1.1.5\cores\coreX-corefiles/UART_private.h:69

    // if we should be storing the received character into the location
    // just before the tail (meaning that the head would advance to the
    // current location of the tail), we're about to overflow the buffer
    // and so we don't write the character or advance the head.
    if (i != _rx_buffer_tail)
     914:	41 f0       	breq	.+16     	; 0x926 <__vector_37+0x44>
     916:	e0 91 28 28 	lds	r30, 0x2828	; 0x802828 <Serial+0x16>
     91a:	f0 e0       	ldi	r31, 0x00	; 0
C:\Users\Vedansh\AppData\Local\Arduino15\packages\MegaCoreX\hardware\megaavr\1.1.5\cores\coreX-corefiles/UART_private.h:71
    {
      _rx_buffer[_rx_buffer_head] = c;
     91c:	ee 5e       	subi	r30, 0xEE	; 238
     91e:	f7 4d       	sbci	r31, 0xD7	; 215
     920:	95 8f       	std	Z+29, r25	; 0x1d
     922:	80 93 28 28 	sts	0x2828, r24	; 0x802828 <Serial+0x16>
__vector_37():
     926:	ff 91       	pop	r31
C:\Users\Vedansh\AppData\Local\Arduino15\packages\MegaCoreX\hardware\megaavr\1.1.5\cores\coreX-corefiles/UART_private.h:72
      _rx_buffer_head = i;
     928:	ef 91       	pop	r30
     92a:	9f 91       	pop	r25
C:\Users\Vedansh\AppData\Local\Arduino15\packages\MegaCoreX\hardware\megaavr\1.1.5\cores\coreX-corefiles/UART0.cpp:43
  Serial._rx_complete_irq();
}
     92c:	8f 91       	pop	r24
     92e:	2f 91       	pop	r18
     930:	0f 90       	pop	r0
     932:	0f be       	out	0x3f, r0	; 63
     934:	0f 90       	pop	r0
     936:	1f 90       	pop	r1
     938:	18 95       	reti
_rx_complete_irq():
     93a:	80 81       	ld	r24, Z
     93c:	f4 cf       	rjmp	.-24     	; 0x926 <__vector_37+0x44>

0000093e <countPulseASM>:
countPulseASM():
C:\Users\Vedansh\AppData\Local\Arduino15\packages\MegaCoreX\hardware\megaavr\1.1.5\cores\coreX-corefiles/wiring_pulse.S:62

countPulseASM:

.LM0:
.LFBB1:
    push r12   ;   ;  130 pushqi1/1 [length = 1]
     93e:	cf 92       	push	r12
C:\Users\Vedansh\AppData\Local\Arduino15\packages\MegaCoreX\hardware\megaavr\1.1.5\cores\coreX-corefiles/wiring_pulse.S:63
    push r13   ;   ;  131 pushqi1/1 [length = 1]
     940:	df 92       	push	r13
C:\Users\Vedansh\AppData\Local\Arduino15\packages\MegaCoreX\hardware\megaavr\1.1.5\cores\coreX-corefiles/wiring_pulse.S:64
    push r14   ;   ;  132 pushqi1/1 [length = 1]
     942:	ef 92       	push	r14
C:\Users\Vedansh\AppData\Local\Arduino15\packages\MegaCoreX\hardware\megaavr\1.1.5\cores\coreX-corefiles/wiring_pulse.S:65
    push r15   ;   ;  133 pushqi1/1 [length = 1]
     944:	ff 92       	push	r15
C:\Users\Vedansh\AppData\Local\Arduino15\packages\MegaCoreX\hardware\megaavr\1.1.5\cores\coreX-corefiles/wiring_pulse.S:66
    push r16   ;   ;  134 pushqi1/1 [length = 1]
     946:	0f 93       	push	r16
C:\Users\Vedansh\AppData\Local\Arduino15\packages\MegaCoreX\hardware\megaavr\1.1.5\cores\coreX-corefiles/wiring_pulse.S:67
    push r17   ;   ;  135 pushqi1/1 [length = 1]
     948:	1f 93       	push	r17
C:\Users\Vedansh\AppData\Local\Arduino15\packages\MegaCoreX\hardware\megaavr\1.1.5\cores\coreX-corefiles/wiring_pulse.S:72
/* prologue: function */
/* frame size = 0 */
/* stack size = 6 */
.L__stack_usage = 6
    mov r30,r24  ;  port, port   ;  2 *movhi/1  [length = 2]
     94a:	e8 2f       	mov	r30, r24
C:\Users\Vedansh\AppData\Local\Arduino15\packages\MegaCoreX\hardware\megaavr\1.1.5\cores\coreX-corefiles/wiring_pulse.S:73
    mov r31,r25  ;  port, port
     94c:	f9 2f       	mov	r31, r25
C:\Users\Vedansh\AppData\Local\Arduino15\packages\MegaCoreX\hardware\megaavr\1.1.5\cores\coreX-corefiles/wiring_pulse.S:79
/*     unsigned long width = 0;
***     // wait for any previous pulse to end
***     while ((*port & bit) == stateMask)
*/
.LM1:
    rjmp .L2   ;   ;  181 jump  [length = 1]
     94e:	05 c0       	rjmp	.+10     	; 0x95a <countPulseASM+0x1c>
C:\Users\Vedansh\AppData\Local\Arduino15\packages\MegaCoreX\hardware\megaavr\1.1.5\cores\coreX-corefiles/wiring_pulse.S:83
.L4:
/*         if (--maxloops == 0) */
.LM2:
    subi r16,1   ;  maxloops,  ;  17  addsi3/2  [length = 4]
     950:	01 50       	subi	r16, 0x01	; 1
C:\Users\Vedansh\AppData\Local\Arduino15\packages\MegaCoreX\hardware\megaavr\1.1.5\cores\coreX-corefiles/wiring_pulse.S:84
    sbc r17, r1   ;  maxloops
     952:	11 09       	sbc	r17, r1
C:\Users\Vedansh\AppData\Local\Arduino15\packages\MegaCoreX\hardware\megaavr\1.1.5\cores\coreX-corefiles/wiring_pulse.S:85
    sbc r18, r1   ;  maxloops
     954:	21 09       	sbc	r18, r1
C:\Users\Vedansh\AppData\Local\Arduino15\packages\MegaCoreX\hardware\megaavr\1.1.5\cores\coreX-corefiles/wiring_pulse.S:86
    sbc r19, r1   ;  maxloops
     956:	31 09       	sbc	r19, r1
C:\Users\Vedansh\AppData\Local\Arduino15\packages\MegaCoreX\hardware\megaavr\1.1.5\cores\coreX-corefiles/wiring_pulse.S:87
    breq .L13  ; ,   ;  19  branch  [length = 1]
     958:	61 f1       	breq	.+88     	; 0x9b2 <countPulseASM+0x74>
C:\Users\Vedansh\AppData\Local\Arduino15\packages\MegaCoreX\hardware\megaavr\1.1.5\cores\coreX-corefiles/wiring_pulse.S:91
.L2:
/*         if (--maxloops == 0) */
.LM3:
    ld r25,Z   ;  D.1554, *port_7(D)   ;  22  movqi_insn/4  [length = 1]
     95a:	90 81       	ld	r25, Z
C:\Users\Vedansh\AppData\Local\Arduino15\packages\MegaCoreX\hardware\megaavr\1.1.5\cores\coreX-corefiles/wiring_pulse.S:92
    and r25,r22  ;  D.1554, bit  ;  24  andqi3/1  [length = 1]
     95c:	96 23       	and	r25, r22
C:\Users\Vedansh\AppData\Local\Arduino15\packages\MegaCoreX\hardware\megaavr\1.1.5\cores\coreX-corefiles/wiring_pulse.S:93
    cp r25,r20   ;  D.1554, stateMask  ;  25  *cmpqi/2  [length = 1]
     95e:	94 17       	cp	r25, r20
C:\Users\Vedansh\AppData\Local\Arduino15\packages\MegaCoreX\hardware\megaavr\1.1.5\cores\coreX-corefiles/wiring_pulse.S:94
    breq .L4   ; ,   ;  26  branch  [length = 1]
     960:	b9 f3       	breq	.-18     	; 0x950 <countPulseASM+0x12>
C:\Users\Vedansh\AppData\Local\Arduino15\packages\MegaCoreX\hardware\megaavr\1.1.5\cores\coreX-corefiles/wiring_pulse.S:95
    rjmp .L6   ;   ;  184 jump  [length = 1]
     962:	05 c0       	rjmp	.+10     	; 0x96e <countPulseASM+0x30>
C:\Users\Vedansh\AppData\Local\Arduino15\packages\MegaCoreX\hardware\megaavr\1.1.5\cores\coreX-corefiles/wiring_pulse.S:104
***     // wait for the pulse to start
***     while ((*port & bit) != stateMask)
***         if (--maxloops == 0)
*/
.LM4:
    subi r16,1   ;  maxloops,  ;  31  addsi3/2  [length = 4]
     964:	01 50       	subi	r16, 0x01	; 1
C:\Users\Vedansh\AppData\Local\Arduino15\packages\MegaCoreX\hardware\megaavr\1.1.5\cores\coreX-corefiles/wiring_pulse.S:105
    sbc r17, r1   ;  maxloops
     966:	11 09       	sbc	r17, r1
C:\Users\Vedansh\AppData\Local\Arduino15\packages\MegaCoreX\hardware\megaavr\1.1.5\cores\coreX-corefiles/wiring_pulse.S:106
    sbc r18, r1   ;  maxloops
     968:	21 09       	sbc	r18, r1
C:\Users\Vedansh\AppData\Local\Arduino15\packages\MegaCoreX\hardware\megaavr\1.1.5\cores\coreX-corefiles/wiring_pulse.S:107
    sbc r19, r1   ;  maxloops
     96a:	31 09       	sbc	r19, r1
C:\Users\Vedansh\AppData\Local\Arduino15\packages\MegaCoreX\hardware\megaavr\1.1.5\cores\coreX-corefiles/wiring_pulse.S:108
    breq .L13  ; ,   ;  33  branch  [length = 1]
     96c:	11 f1       	breq	.+68     	; 0x9b2 <countPulseASM+0x74>
C:\Users\Vedansh\AppData\Local\Arduino15\packages\MegaCoreX\hardware\megaavr\1.1.5\cores\coreX-corefiles/wiring_pulse.S:112
.L6:
/*         if (--maxloops == 0) */
.LM5:
    ld r25,Z   ;  D.1554, *port_7(D)   ;  41  movqi_insn/4  [length = 1]
     96e:	90 81       	ld	r25, Z
C:\Users\Vedansh\AppData\Local\Arduino15\packages\MegaCoreX\hardware\megaavr\1.1.5\cores\coreX-corefiles/wiring_pulse.S:113
    and r25,r22  ;  D.1554, bit  ;  43  andqi3/1  [length = 1]
     970:	96 23       	and	r25, r22
C:\Users\Vedansh\AppData\Local\Arduino15\packages\MegaCoreX\hardware\megaavr\1.1.5\cores\coreX-corefiles/wiring_pulse.S:114
    cpse r25,r20   ;  D.1554, stateMask  ;  44  enable_interrupt-3  [length = 1]
     972:	94 13       	cpse	r25, r20
C:\Users\Vedansh\AppData\Local\Arduino15\packages\MegaCoreX\hardware\megaavr\1.1.5\cores\coreX-corefiles/wiring_pulse.S:115
    rjmp .L7   ;
     974:	f7 cf       	rjmp	.-18     	; 0x964 <countPulseASM+0x26>
C:\Users\Vedansh\AppData\Local\Arduino15\packages\MegaCoreX\hardware\megaavr\1.1.5\cores\coreX-corefiles/wiring_pulse.S:116
    mov r12, r1   ;  width  ;  7 *movsi/2  [length = 4]
     976:	c1 2c       	mov	r12, r1
C:\Users\Vedansh\AppData\Local\Arduino15\packages\MegaCoreX\hardware\megaavr\1.1.5\cores\coreX-corefiles/wiring_pulse.S:117
    mov r13, r1   ;  width
     978:	d1 2c       	mov	r13, r1
C:\Users\Vedansh\AppData\Local\Arduino15\packages\MegaCoreX\hardware\megaavr\1.1.5\cores\coreX-corefiles/wiring_pulse.S:118
    mov r14, r1   ;  width
     97a:	e1 2c       	mov	r14, r1
C:\Users\Vedansh\AppData\Local\Arduino15\packages\MegaCoreX\hardware\megaavr\1.1.5\cores\coreX-corefiles/wiring_pulse.S:119
    mov r15, r1   ;  width
     97c:	f1 2c       	mov	r15, r1
C:\Users\Vedansh\AppData\Local\Arduino15\packages\MegaCoreX\hardware\megaavr\1.1.5\cores\coreX-corefiles/wiring_pulse.S:120
    rjmp .L9   ;   ;  186 jump  [length = 1]
     97e:	0a c0       	rjmp	.+20     	; 0x994 <countPulseASM+0x56>
C:\Users\Vedansh\AppData\Local\Arduino15\packages\MegaCoreX\hardware\megaavr\1.1.5\cores\coreX-corefiles/wiring_pulse.S:129
***     // wait for the pulse to stop
***     while ((*port & bit) == stateMask) {
***         if (++width == maxloops)
*/
.LM6:
    ldi r24,-1   ; ,   ;  50  addsi3/3  [length = 5]
     980:	8f ef       	ldi	r24, 0xFF	; 255
C:\Users\Vedansh\AppData\Local\Arduino15\packages\MegaCoreX\hardware\megaavr\1.1.5\cores\coreX-corefiles/wiring_pulse.S:130
    sub r12,r24  ;  width,
     982:	c8 1a       	sub	r12, r24
C:\Users\Vedansh\AppData\Local\Arduino15\packages\MegaCoreX\hardware\megaavr\1.1.5\cores\coreX-corefiles/wiring_pulse.S:131
    sbc r13,r24  ;  width,
     984:	d8 0a       	sbc	r13, r24
C:\Users\Vedansh\AppData\Local\Arduino15\packages\MegaCoreX\hardware\megaavr\1.1.5\cores\coreX-corefiles/wiring_pulse.S:132
    sbc r14,r24  ;  width,
     986:	e8 0a       	sbc	r14, r24
C:\Users\Vedansh\AppData\Local\Arduino15\packages\MegaCoreX\hardware\megaavr\1.1.5\cores\coreX-corefiles/wiring_pulse.S:133
    sbc r15,r24  ;  width,
     988:	f8 0a       	sbc	r15, r24
C:\Users\Vedansh\AppData\Local\Arduino15\packages\MegaCoreX\hardware\megaavr\1.1.5\cores\coreX-corefiles/wiring_pulse.S:134
    cp r16,r12   ;  maxloops, width  ;  51  *cmpsi/2  [length = 4]
     98a:	0c 15       	cp	r16, r12
C:\Users\Vedansh\AppData\Local\Arduino15\packages\MegaCoreX\hardware\megaavr\1.1.5\cores\coreX-corefiles/wiring_pulse.S:135
    cpc r17,r13  ;  maxloops, width
     98c:	1d 05       	cpc	r17, r13
C:\Users\Vedansh\AppData\Local\Arduino15\packages\MegaCoreX\hardware\megaavr\1.1.5\cores\coreX-corefiles/wiring_pulse.S:136
    cpc r18,r14  ;  maxloops, width
     98e:	2e 05       	cpc	r18, r14
C:\Users\Vedansh\AppData\Local\Arduino15\packages\MegaCoreX\hardware\megaavr\1.1.5\cores\coreX-corefiles/wiring_pulse.S:137
    cpc r19,r15  ;  maxloops, width
     990:	3f 05       	cpc	r19, r15
C:\Users\Vedansh\AppData\Local\Arduino15\packages\MegaCoreX\hardware\megaavr\1.1.5\cores\coreX-corefiles/wiring_pulse.S:138
    breq .L13  ; ,   ;  52  branch  [length = 1]
     992:	79 f0       	breq	.+30     	; 0x9b2 <countPulseASM+0x74>
C:\Users\Vedansh\AppData\Local\Arduino15\packages\MegaCoreX\hardware\megaavr\1.1.5\cores\coreX-corefiles/wiring_pulse.S:142
.L9:
/*         if (++width == maxloops) */
.LM7:
    ld r24,Z   ;  D.1554, *port_7(D)   ;  60  movqi_insn/4  [length = 1]
     994:	80 81       	ld	r24, Z
C:\Users\Vedansh\AppData\Local\Arduino15\packages\MegaCoreX\hardware\megaavr\1.1.5\cores\coreX-corefiles/wiring_pulse.S:143
    and r24,r22  ;  D.1554, bit  ;  62  andqi3/1  [length = 1]
     996:	86 23       	and	r24, r22
C:\Users\Vedansh\AppData\Local\Arduino15\packages\MegaCoreX\hardware\megaavr\1.1.5\cores\coreX-corefiles/wiring_pulse.S:144
    cp r24,r20   ;  D.1554, stateMask  ;  63  *cmpqi/2  [length = 1]
     998:	84 17       	cp	r24, r20
C:\Users\Vedansh\AppData\Local\Arduino15\packages\MegaCoreX\hardware\megaavr\1.1.5\cores\coreX-corefiles/wiring_pulse.S:145
    breq .L10  ; ,   ;  64  branch  [length = 1]
     99a:	91 f3       	breq	.-28     	; 0x980 <countPulseASM+0x42>
C:\Users\Vedansh\AppData\Local\Arduino15\packages\MegaCoreX\hardware\megaavr\1.1.5\cores\coreX-corefiles/wiring_pulse.S:151
/*             return 0;
***     }
***     return width;
*/
.LM8:
    mov r22,r12  ;  D.1553, width  ;  108 movqi_insn/1  [length = 1]
     99c:	6c 2d       	mov	r22, r12
C:\Users\Vedansh\AppData\Local\Arduino15\packages\MegaCoreX\hardware\megaavr\1.1.5\cores\coreX-corefiles/wiring_pulse.S:152
    mov r23,r13  ;  D.1553, width  ;  109 movqi_insn/1  [length = 1]
     99e:	7d 2d       	mov	r23, r13
C:\Users\Vedansh\AppData\Local\Arduino15\packages\MegaCoreX\hardware\megaavr\1.1.5\cores\coreX-corefiles/wiring_pulse.S:153
    mov r24,r14  ;  D.1553, width  ;  110 movqi_insn/1  [length = 1]
     9a0:	8e 2d       	mov	r24, r14
C:\Users\Vedansh\AppData\Local\Arduino15\packages\MegaCoreX\hardware\megaavr\1.1.5\cores\coreX-corefiles/wiring_pulse.S:154
    mov r25,r15  ;  D.1553, width  ;  111 movqi_insn/1  [length = 1]
     9a2:	9f 2d       	mov	r25, r15
C:\Users\Vedansh\AppData\Local\Arduino15\packages\MegaCoreX\hardware\megaavr\1.1.5\cores\coreX-corefiles/wiring_pulse.S:157
/* epilogue start */
.LM9:
    pop r17  ;   ;  171 popqi [length = 1]
     9a4:	1f 91       	pop	r17
C:\Users\Vedansh\AppData\Local\Arduino15\packages\MegaCoreX\hardware\megaavr\1.1.5\cores\coreX-corefiles/wiring_pulse.S:158
    pop r16  ;   ;  172 popqi [length = 1]
     9a6:	0f 91       	pop	r16
C:\Users\Vedansh\AppData\Local\Arduino15\packages\MegaCoreX\hardware\megaavr\1.1.5\cores\coreX-corefiles/wiring_pulse.S:159
    pop r15  ;   ;  173 popqi [length = 1]
     9a8:	ff 90       	pop	r15
C:\Users\Vedansh\AppData\Local\Arduino15\packages\MegaCoreX\hardware\megaavr\1.1.5\cores\coreX-corefiles/wiring_pulse.S:160
    pop r14  ;   ;  174 popqi [length = 1]
     9aa:	ef 90       	pop	r14
C:\Users\Vedansh\AppData\Local\Arduino15\packages\MegaCoreX\hardware\megaavr\1.1.5\cores\coreX-corefiles/wiring_pulse.S:161
    pop r13  ;   ;  175 popqi [length = 1]
     9ac:	df 90       	pop	r13
C:\Users\Vedansh\AppData\Local\Arduino15\packages\MegaCoreX\hardware\megaavr\1.1.5\cores\coreX-corefiles/wiring_pulse.S:162
    pop r12  ;   ;  176 popqi [length = 1]
     9ae:	cf 90       	pop	r12
C:\Users\Vedansh\AppData\Local\Arduino15\packages\MegaCoreX\hardware\megaavr\1.1.5\cores\coreX-corefiles/wiring_pulse.S:163
    ret  ;  177 return_from_epilogue  [length = 1]
     9b0:	08 95       	ret
C:\Users\Vedansh\AppData\Local\Arduino15\packages\MegaCoreX\hardware\megaavr\1.1.5\cores\coreX-corefiles/wiring_pulse.S:166
.L13:
.LM10:
    ldi r22,0  ;  D.1553   ;  120 movqi_insn/1  [length = 1]
     9b2:	60 e0       	ldi	r22, 0x00	; 0
C:\Users\Vedansh\AppData\Local\Arduino15\packages\MegaCoreX\hardware\megaavr\1.1.5\cores\coreX-corefiles/wiring_pulse.S:167
    ldi r23,0  ;  D.1553   ;  121 movqi_insn/1  [length = 1]
     9b4:	70 e0       	ldi	r23, 0x00	; 0
C:\Users\Vedansh\AppData\Local\Arduino15\packages\MegaCoreX\hardware\megaavr\1.1.5\cores\coreX-corefiles/wiring_pulse.S:168
    ldi r24,0  ;  D.1553   ;  122 movqi_insn/1  [length = 1]
     9b6:	80 e0       	ldi	r24, 0x00	; 0
C:\Users\Vedansh\AppData\Local\Arduino15\packages\MegaCoreX\hardware\megaavr\1.1.5\cores\coreX-corefiles/wiring_pulse.S:169
    ldi r25,0  ;  D.1553   ;  123 movqi_insn/1  [length = 1]
     9b8:	90 e0       	ldi	r25, 0x00	; 0
C:\Users\Vedansh\AppData\Local\Arduino15\packages\MegaCoreX\hardware\megaavr\1.1.5\cores\coreX-corefiles/wiring_pulse.S:172
/* epilogue start */
.LM11:
    pop r17  ;   ;  138 popqi [length = 1]
     9ba:	1f 91       	pop	r17
C:\Users\Vedansh\AppData\Local\Arduino15\packages\MegaCoreX\hardware\megaavr\1.1.5\cores\coreX-corefiles/wiring_pulse.S:173
    pop r16  ;   ;  139 popqi [length = 1]
     9bc:	0f 91       	pop	r16
C:\Users\Vedansh\AppData\Local\Arduino15\packages\MegaCoreX\hardware\megaavr\1.1.5\cores\coreX-corefiles/wiring_pulse.S:174
    pop r15  ;   ;  140 popqi [length = 1]
     9be:	ff 90       	pop	r15
C:\Users\Vedansh\AppData\Local\Arduino15\packages\MegaCoreX\hardware\megaavr\1.1.5\cores\coreX-corefiles/wiring_pulse.S:175
    pop r14  ;   ;  141 popqi [length = 1]
     9c0:	ef 90       	pop	r14
C:\Users\Vedansh\AppData\Local\Arduino15\packages\MegaCoreX\hardware\megaavr\1.1.5\cores\coreX-corefiles/wiring_pulse.S:176
    pop r13  ;   ;  142 popqi [length = 1]
     9c2:	df 90       	pop	r13
C:\Users\Vedansh\AppData\Local\Arduino15\packages\MegaCoreX\hardware\megaavr\1.1.5\cores\coreX-corefiles/wiring_pulse.S:177
    pop r12  ;   ;  143 popqi [length = 1]
     9c4:	cf 90       	pop	r12
C:\Users\Vedansh\AppData\Local\Arduino15\packages\MegaCoreX\hardware\megaavr\1.1.5\cores\coreX-corefiles/wiring_pulse.S:178
    ret  ;  144 return_from_epilogue  [length = 1]
     9c6:	08 95       	ret

000009c8 <global constructors keyed to 65535_0_MSDA_Firmware_USB.ino.cpp.o.2778>:
_GLOBAL__I_65535_0_MSDA_Firmware_USB.ino.cpp.o.2778():
     9c8:	e2 e1       	ldi	r30, 0x12	; 18
     9ca:	f8 e2       	ldi	r31, 0x28	; 40
     9cc:	12 82       	std	Z+2, r1	; 0x02
     9ce:	13 82       	std	Z+3, r1	; 0x03
     9d0:	88 ee       	ldi	r24, 0xE8	; 232
     9d2:	93 e0       	ldi	r25, 0x03	; 3
     9d4:	a0 e0       	ldi	r26, 0x00	; 0
     9d6:	b0 e0       	ldi	r27, 0x00	; 0
     9d8:	84 83       	std	Z+4, r24	; 0x04
     9da:	95 83       	std	Z+5, r25	; 0x05
     9dc:	a6 83       	std	Z+6, r26	; 0x06
     9de:	b7 83       	std	Z+7, r27	; 0x07
     9e0:	82 e7       	ldi	r24, 0x72	; 114
     9e2:	99 e5       	ldi	r25, 0x59	; 89
     9e4:	80 83       	st	Z, r24
     9e6:	91 83       	std	Z+1, r25	; 0x01
     9e8:	80 e6       	ldi	r24, 0x60	; 96
     9ea:	98 e0       	ldi	r25, 0x08	; 8
     9ec:	84 87       	std	Z+12, r24	; 0x0c
     9ee:	95 87       	std	Z+13, r25	; 0x0d
     9f0:	88 e1       	ldi	r24, 0x18	; 24
     9f2:	86 87       	std	Z+14, r24	; 0x0e
     9f4:	89 e1       	ldi	r24, 0x19	; 25
     9f6:	87 87       	std	Z+15, r24	; 0x0f
     9f8:	80 e4       	ldi	r24, 0x40	; 64
     9fa:	80 8b       	std	Z+16, r24	; 0x10
     9fc:	8a e0       	ldi	r24, 0x0A	; 10
     9fe:	81 8b       	std	Z+17, r24	; 0x11
     a00:	89 e0       	ldi	r24, 0x09	; 9
     a02:	82 8b       	std	Z+18, r24	; 0x12
     a04:	13 8a       	std	Z+19, r1	; 0x13
     a06:	14 8a       	std	Z+20, r1	; 0x14
     a08:	15 8a       	std	Z+21, r1	; 0x15
     a0a:	16 8a       	std	Z+22, r1	; 0x16
     a0c:	17 8a       	std	Z+23, r1	; 0x17
     a0e:	10 8e       	std	Z+24, r1	; 0x18
     a10:	11 8e       	std	Z+25, r1	; 0x19
     a12:	86 e2       	ldi	r24, 0x26	; 38
     a14:	82 8f       	std	Z+26, r24	; 0x1a
     a16:	13 8e       	std	Z+27, r1	; 0x1b
     a18:	14 8e       	std	Z+28, r1	; 0x1c
     a1a:	ef ea       	ldi	r30, 0xAF	; 175
     a1c:	f8 e2       	ldi	r31, 0x28	; 40
     a1e:	10 82       	st	Z, r1
     a20:	11 82       	std	Z+1, r1	; 0x01
     a22:	12 82       	std	Z+2, r1	; 0x02
     a24:	13 82       	std	Z+3, r1	; 0x03
     a26:	14 82       	std	Z+4, r1	; 0x04
     a28:	15 82       	std	Z+5, r1	; 0x05
     a2a:	50 e0       	ldi	r21, 0x00	; 0
     a2c:	40 e0       	ldi	r20, 0x00	; 0
     a2e:	6f ea       	ldi	r22, 0xAF	; 175
     a30:	79 e5       	ldi	r23, 0x59	; 89
     a32:	cf 01       	movw	r24, r30
     a34:	d7 ce       	rjmp	.-594    	; 0x7e4 <String::copy(char const*, unsigned int)>

00000a36 <main>:
main():
C:\Users\Vedansh\AppData\Local\Arduino15\packages\MegaCoreX\hardware\megaavr\1.1.5\cores\coreX-corefiles/main.cpp:29

void setupUSB() __attribute__((weak));
void setupUSB() {}

int main(void)
{
     a36:	cf 93       	push	r28
     a38:	df 93       	push	r29
     a3a:	cd b7       	in	r28, 0x3d	; 61
     a3c:	de b7       	in	r29, 0x3e	; 62
     a3e:	60 97       	sbiw	r28, 0x10	; 16
     a40:	cd bf       	out	0x3d, r28	; 61
     a42:	de bf       	out	0x3e, r29	; 62
init():
C:\Users\Vedansh\AppData\Local\Arduino15\packages\MegaCoreX\hardware\megaavr\1.1.5\cores\coreX-corefiles/wiring.c:355
#if (F_CPU == 20000000L)
  /* No division on clock */
  _PROTECTED_WRITE(CLKCTRL_MCLKCTRLB, 0x00);
#elif (F_CPU == 16000000L)
  /* No division on clock */
  _PROTECTED_WRITE(CLKCTRL_MCLKCTRLB, 0x00);
     a44:	88 ed       	ldi	r24, 0xD8	; 216
     a46:	90 e0       	ldi	r25, 0x00	; 0
     a48:	84 bf       	out	0x34, r24	; 52
     a4a:	90 93 61 00 	sts	0x0061, r25	; 0x800061 <__TEXT_REGION_LENGTH__+0x7f4061>
C:\Users\Vedansh\AppData\Local\Arduino15\packages\MegaCoreX\hardware\megaavr\1.1.5\cores\coreX-corefiles/wiring.c:388
  /* ADC clock between 50-200 kHz */

#if (F_CPU >= 20000000L) // 20 MHz / 128 = 156.250 kHz
  ADC0.CTRLC |= ADC_PRESC_DIV128_gc;
#elif (F_CPU >= 16000000L) // 16 MHz / 128 = 125 kHz
  ADC0.CTRLC |= ADC_PRESC_DIV128_gc;
     a4e:	80 91 02 06 	lds	r24, 0x0602	; 0x800602 <__TEXT_REGION_LENGTH__+0x7f4602>
     a52:	86 60       	ori	r24, 0x06	; 6
     a54:	80 93 02 06 	sts	0x0602, r24	; 0x800602 <__TEXT_REGION_LENGTH__+0x7f4602>
C:\Users\Vedansh\AppData\Local\Arduino15\packages\MegaCoreX\hardware\megaavr\1.1.5\cores\coreX-corefiles/wiring.c:402
#else                      // 128 kHz / 2 = 64 kHz -> This is the closest you can get, the prescaler is 2
  ADC0.CTRLC |= ADC_PRESC_DIV2_gc;
#endif

  /* Enable ADC */
  ADC0.CTRLA |= ADC_ENABLE_bm;
     a58:	80 91 00 06 	lds	r24, 0x0600	; 0x800600 <__TEXT_REGION_LENGTH__+0x7f4600>
     a5c:	81 60       	ori	r24, 0x01	; 1
     a5e:	80 93 00 06 	sts	0x0600, r24	; 0x800600 <__TEXT_REGION_LENGTH__+0x7f4600>
analogReference():
C:\Users\Vedansh\AppData\Local\Arduino15\packages\MegaCoreX\hardware\megaavr\1.1.5\cores\coreX-corefiles/wiring_analog.c:35
{
  switch (mode)
  {
    case EXTERNAL:
    case VDD:
      ADC0.CTRLC = (ADC0.CTRLC & ~(ADC_REFSEL_gm)) | mode | ADC_SAMPCAP_bm; // Per datasheet, recommended SAMPCAP=1 at ref > 1v - we don't *KNOW* the external reference will be >1v, but it's probably more likely...
     a62:	80 91 02 06 	lds	r24, 0x0602	; 0x800602 <__TEXT_REGION_LENGTH__+0x7f4602>
     a66:	8f 7c       	andi	r24, 0xCF	; 207
     a68:	80 65       	ori	r24, 0x50	; 80
     a6a:	80 93 02 06 	sts	0x0602, r24	; 0x800602 <__TEXT_REGION_LENGTH__+0x7f4602>
init():
C:\Users\Vedansh\AppData\Local\Arduino15\packages\MegaCoreX\hardware\megaavr\1.1.5\cores\coreX-corefiles/wiring.c:407
  analogReference(VDD);

#endif

  PORTMUX.USARTROUTEA = 0;
     a6e:	10 92 e2 05 	sts	0x05E2, r1	; 0x8005e2 <__TEXT_REGION_LENGTH__+0x7f45e2>
setup_timers():
C:\Users\Vedansh\AppData\Local\Arduino15\packages\MegaCoreX\hardware\megaavr\1.1.5\cores\coreX-corefiles/wiring.c:446
void setup_timers()
{
  //  TYPE A TIMER

  // PORTMUX setting for TCA (defined in pins_arduino.h)
  PORTMUX.TCAROUTEA = TCA0_PINS;
     a72:	81 e0       	ldi	r24, 0x01	; 1
     a74:	80 93 e4 05 	sts	0x05E4, r24	; 0x8005e4 <__TEXT_REGION_LENGTH__+0x7f45e4>
C:\Users\Vedansh\AppData\Local\Arduino15\packages\MegaCoreX\hardware\megaavr\1.1.5\cores\coreX-corefiles/wiring.c:449

  // Enable split mode before anything else
  TCA0.SPLIT.CTRLD = TCA_SINGLE_SPLITM_bm;
     a78:	80 93 03 0a 	sts	0x0A03, r24	; 0x800a03 <__TEXT_REGION_LENGTH__+0x7f4a03>
C:\Users\Vedansh\AppData\Local\Arduino15\packages\MegaCoreX\hardware\megaavr\1.1.5\cores\coreX-corefiles/wiring.c:453

  // Period setting, two 8 bit registers
  TCA0.SPLIT.LPER =
      TCA0.SPLIT.HPER = PWM_TIMER_PERIOD;
     a7c:	8e ef       	ldi	r24, 0xFE	; 254
     a7e:	80 93 27 0a 	sts	0x0A27, r24	; 0x800a27 <__TEXT_REGION_LENGTH__+0x7f4a27>
C:\Users\Vedansh\AppData\Local\Arduino15\packages\MegaCoreX\hardware\megaavr\1.1.5\cores\coreX-corefiles/wiring.c:452

  // Enable split mode before anything else
  TCA0.SPLIT.CTRLD = TCA_SINGLE_SPLITM_bm;

  // Period setting, two 8 bit registers
  TCA0.SPLIT.LPER =
     a82:	80 93 26 0a 	sts	0x0A26, r24	; 0x800a26 <__TEXT_REGION_LENGTH__+0x7f4a26>
C:\Users\Vedansh\AppData\Local\Arduino15\packages\MegaCoreX\hardware\megaavr\1.1.5\cores\coreX-corefiles/wiring.c:461
  TCA0.SPLIT.LCMP0 =
      TCA0.SPLIT.LCMP1 =
          TCA0.SPLIT.LCMP2 =
              TCA0.SPLIT.HCMP0 =
                  TCA0.SPLIT.HCMP1 =
                      TCA0.SPLIT.HCMP2 = PWM_TIMER_COMPARE;
     a86:	80 e8       	ldi	r24, 0x80	; 128
     a88:	80 93 2d 0a 	sts	0x0A2D, r24	; 0x800a2d <__TEXT_REGION_LENGTH__+0x7f4a2d>
C:\Users\Vedansh\AppData\Local\Arduino15\packages\MegaCoreX\hardware\megaavr\1.1.5\cores\coreX-corefiles/wiring.c:460
  // Default duty 50%, will re-assign in analogWrite()
  TCA0.SPLIT.LCMP0 =
      TCA0.SPLIT.LCMP1 =
          TCA0.SPLIT.LCMP2 =
              TCA0.SPLIT.HCMP0 =
                  TCA0.SPLIT.HCMP1 =
     a8c:	80 93 2b 0a 	sts	0x0A2B, r24	; 0x800a2b <__TEXT_REGION_LENGTH__+0x7f4a2b>
C:\Users\Vedansh\AppData\Local\Arduino15\packages\MegaCoreX\hardware\megaavr\1.1.5\cores\coreX-corefiles/wiring.c:459

  // Default duty 50%, will re-assign in analogWrite()
  TCA0.SPLIT.LCMP0 =
      TCA0.SPLIT.LCMP1 =
          TCA0.SPLIT.LCMP2 =
              TCA0.SPLIT.HCMP0 =
     a90:	80 93 29 0a 	sts	0x0A29, r24	; 0x800a29 <__TEXT_REGION_LENGTH__+0x7f4a29>
C:\Users\Vedansh\AppData\Local\Arduino15\packages\MegaCoreX\hardware\megaavr\1.1.5\cores\coreX-corefiles/wiring.c:458
      TCA0.SPLIT.HPER = PWM_TIMER_PERIOD;

  // Default duty 50%, will re-assign in analogWrite()
  TCA0.SPLIT.LCMP0 =
      TCA0.SPLIT.LCMP1 =
          TCA0.SPLIT.LCMP2 =
     a94:	80 93 2c 0a 	sts	0x0A2C, r24	; 0x800a2c <__TEXT_REGION_LENGTH__+0x7f4a2c>
C:\Users\Vedansh\AppData\Local\Arduino15\packages\MegaCoreX\hardware\megaavr\1.1.5\cores\coreX-corefiles/wiring.c:457
  TCA0.SPLIT.LPER =
      TCA0.SPLIT.HPER = PWM_TIMER_PERIOD;

  // Default duty 50%, will re-assign in analogWrite()
  TCA0.SPLIT.LCMP0 =
      TCA0.SPLIT.LCMP1 =
     a98:	80 93 2a 0a 	sts	0x0A2A, r24	; 0x800a2a <__TEXT_REGION_LENGTH__+0x7f4a2a>
C:\Users\Vedansh\AppData\Local\Arduino15\packages\MegaCoreX\hardware\megaavr\1.1.5\cores\coreX-corefiles/wiring.c:456
  // Period setting, two 8 bit registers
  TCA0.SPLIT.LPER =
      TCA0.SPLIT.HPER = PWM_TIMER_PERIOD;

  // Default duty 50%, will re-assign in analogWrite()
  TCA0.SPLIT.LCMP0 =
     a9c:	80 93 28 0a 	sts	0x0A28, r24	; 0x800a28 <__TEXT_REGION_LENGTH__+0x7f4a28>
C:\Users\Vedansh\AppData\Local\Arduino15\packages\MegaCoreX\hardware\megaavr\1.1.5\cores\coreX-corefiles/wiring.c:474
#elif F_CPU <= 8000000L
  // Use DIV16 prescaler (giving 250kHz clocke on 4MHz, 500kHz clock on 8MHz), enable TCA timer
  TCA0.SPLIT.CTRLA = (TCA_SPLIT_CLKSEL_DIV16_gc) | (TCA_SPLIT_ENABLE_bm);
#else
  // Use DIV64 prescaler (giving 250kHz clock on 16MHz), enable TCA timer
  TCA0.SPLIT.CTRLA = (TCA_SPLIT_CLKSEL_DIV64_gc) | (TCA_SPLIT_ENABLE_bm);
     aa0:	8b e0       	ldi	r24, 0x0B	; 11
     aa2:	80 93 00 0a 	sts	0x0A00, r24	; 0x800a00 <__TEXT_REGION_LENGTH__+0x7f4a00>
C:\Users\Vedansh\AppData\Local\Arduino15\packages\MegaCoreX\hardware\megaavr\1.1.5\cores\coreX-corefiles/wiring.c:480
#endif

  //  TYPE B TIMERS

  // Set up routing (defined in pins_arduino.h)
  PORTMUX.TCBROUTEA = 0
     aa6:	83 e0       	ldi	r24, 0x03	; 3
     aa8:	80 93 e5 05 	sts	0x05E5, r24	; 0x8005e5 <__TEXT_REGION_LENGTH__+0x7f45e5>
main():
C:\Users\Vedansh\AppData\Local\Arduino15\packages\MegaCoreX\hardware\megaavr\1.1.5\cores\coreX-corefiles/wiring.c:496
                      | TCB3_PINS
#endif
      ;

  // Start with TCB0
  TCB_t *timer_B = (TCB_t *)&TCB0;
     aac:	e0 e8       	ldi	r30, 0x80	; 128
     aae:	fa e0       	ldi	r31, 0x0A	; 10
setup_timers():
C:\Users\Vedansh\AppData\Local\Arduino15\packages\MegaCoreX\hardware\megaavr\1.1.5\cores\coreX-corefiles/wiring.c:513

  // Timer B Setup loop for TCB[0:end]
  do
  {
    // 8 bit PWM mode, but do not enable output yet, will do in analogWrite()
    timer_B->CTRLB = (TCB_CNTMODE_PWM8_gc);
     ab0:	37 e0       	ldi	r19, 0x07	; 7
C:\Users\Vedansh\AppData\Local\Arduino15\packages\MegaCoreX\hardware\megaavr\1.1.5\cores\coreX-corefiles/wiring.c:516

    // Assign 8-bit period
    timer_B->CCMPL = PWM_TIMER_PERIOD;
     ab2:	2e ef       	ldi	r18, 0xFE	; 254
C:\Users\Vedansh\AppData\Local\Arduino15\packages\MegaCoreX\hardware\megaavr\1.1.5\cores\coreX-corefiles/wiring.c:519

    // default duty 50%, set when output enabled
    timer_B->CCMPH = PWM_TIMER_COMPARE;
     ab4:	90 e8       	ldi	r25, 0x80	; 128
C:\Users\Vedansh\AppData\Local\Arduino15\packages\MegaCoreX\hardware\megaavr\1.1.5\cores\coreX-corefiles/wiring.c:523

    // Use TCA clock (250kHz) and enable
    // (sync update commented out, might try to synchronize later
    timer_B->CTRLA = (TCB_CLKSEL_CLKTCA_gc)
     ab6:	85 e0       	ldi	r24, 0x05	; 5
C:\Users\Vedansh\AppData\Local\Arduino15\packages\MegaCoreX\hardware\megaavr\1.1.5\cores\coreX-corefiles/wiring.c:513

  // Timer B Setup loop for TCB[0:end]
  do
  {
    // 8 bit PWM mode, but do not enable output yet, will do in analogWrite()
    timer_B->CTRLB = (TCB_CNTMODE_PWM8_gc);
     ab8:	31 83       	std	Z+1, r19	; 0x01
C:\Users\Vedansh\AppData\Local\Arduino15\packages\MegaCoreX\hardware\megaavr\1.1.5\cores\coreX-corefiles/wiring.c:516

    // Assign 8-bit period
    timer_B->CCMPL = PWM_TIMER_PERIOD;
     aba:	24 87       	std	Z+12, r18	; 0x0c
C:\Users\Vedansh\AppData\Local\Arduino15\packages\MegaCoreX\hardware\megaavr\1.1.5\cores\coreX-corefiles/wiring.c:519

    // default duty 50%, set when output enabled
    timer_B->CCMPH = PWM_TIMER_COMPARE;
     abc:	95 87       	std	Z+13, r25	; 0x0d
C:\Users\Vedansh\AppData\Local\Arduino15\packages\MegaCoreX\hardware\megaavr\1.1.5\cores\coreX-corefiles/wiring.c:523

    // Use TCA clock (250kHz) and enable
    // (sync update commented out, might try to synchronize later
    timer_B->CTRLA = (TCB_CLKSEL_CLKTCA_gc)
     abe:	80 83       	st	Z, r24
C:\Users\Vedansh\AppData\Local\Arduino15\packages\MegaCoreX\hardware\megaavr\1.1.5\cores\coreX-corefiles/wiring.c:528
                     //|(TCB_SYNCUPD_bm)
                     | (TCB_ENABLE_bm);

    // Increment pointer to next TCB instance
    timer_B++;
     ac0:	70 96       	adiw	r30, 0x10	; 16
C:\Users\Vedansh\AppData\Local\Arduino15\packages\MegaCoreX\hardware\megaavr\1.1.5\cores\coreX-corefiles/wiring.c:531

    // Stop when pointing to TCB3
  } while (timer_B <= timer_B_end);
     ac2:	e0 3c       	cpi	r30, 0xC0	; 192
     ac4:	4a e0       	ldi	r20, 0x0A	; 10
     ac6:	f4 07       	cpc	r31, r20
     ac8:	b9 f7       	brne	.-18     	; 0xab8 <main+0x82>
init():
C:\Users\Vedansh\AppData\Local\Arduino15\packages\MegaCoreX\hardware\megaavr\1.1.5\cores\coreX-corefiles/wiring.c:416
  /********************* TCB for system time tracking **************************/

  // BUG: we can compensate for F_CPU by fine tuning value of TIME_TRACKING_TIMER_COUNT

  /* Select vanilla 16 bit periodic interrupt mode */
  _timer->CTRLB = TCB_CNTMODE_INT_gc;
     aca:	10 92 b1 0a 	sts	0x0AB1, r1	; 0x800ab1 <__TEXT_REGION_LENGTH__+0x7f4ab1>
C:\Users\Vedansh\AppData\Local\Arduino15\packages\MegaCoreX\hardware\megaavr\1.1.5\cores\coreX-corefiles/wiring.c:419

  /* TOP value for overflow every N clock cycles */
  _timer->CCMP = TIME_TRACKING_TIMER_COUNT - 1;
     ace:	8f e7       	ldi	r24, 0x7F	; 127
     ad0:	9e e3       	ldi	r25, 0x3E	; 62
     ad2:	80 93 bc 0a 	sts	0x0ABC, r24	; 0x800abc <__TEXT_REGION_LENGTH__+0x7f4abc>
     ad6:	90 93 bd 0a 	sts	0x0ABD, r25	; 0x800abd <__TEXT_REGION_LENGTH__+0x7f4abd>
C:\Users\Vedansh\AppData\Local\Arduino15\packages\MegaCoreX\hardware\megaavr\1.1.5\cores\coreX-corefiles/wiring.c:422

  /* Enable TCB interrupt */
  _timer->INTCTRL |= TCB_CAPT_bm;
     ada:	80 91 b5 0a 	lds	r24, 0x0AB5	; 0x800ab5 <__TEXT_REGION_LENGTH__+0x7f4ab5>
     ade:	81 60       	ori	r24, 0x01	; 1
     ae0:	80 93 b5 0a 	sts	0x0AB5, r24	; 0x800ab5 <__TEXT_REGION_LENGTH__+0x7f4ab5>
C:\Users\Vedansh\AppData\Local\Arduino15\packages\MegaCoreX\hardware\megaavr\1.1.5\cores\coreX-corefiles/wiring.c:426

  /* Clock selection is F_CPU/N -- which is independent of TCA */
#if TIME_TRACKING_TIMER_DIVIDER == 1
  _timer->CTRLA = TCB_CLKSEL_CLKDIV1_gc; /* F_CPU */
     ae4:	10 92 b0 0a 	sts	0x0AB0, r1	; 0x800ab0 <__TEXT_REGION_LENGTH__+0x7f4ab0>
C:\Users\Vedansh\AppData\Local\Arduino15\packages\MegaCoreX\hardware\megaavr\1.1.5\cores\coreX-corefiles/wiring.c:434
#else
#assert "TIME_TRACKING_TIMER_DIVIDER not supported"
#endif

  /* Enable & start */
  _timer->CTRLA |= TCB_ENABLE_bm; /* Keep this last before enabling interrupts to ensure tracking as accurate as possible */
     ae8:	80 91 b0 0a 	lds	r24, 0x0AB0	; 0x800ab0 <__TEXT_REGION_LENGTH__+0x7f4ab0>
     aec:	81 60       	ori	r24, 0x01	; 1
     aee:	80 93 b0 0a 	sts	0x0AB0, r24	; 0x800ab0 <__TEXT_REGION_LENGTH__+0x7f4ab0>
C:\Users\Vedansh\AppData\Local\Arduino15\packages\MegaCoreX\hardware\megaavr\1.1.5\cores\coreX-corefiles/wiring.c:438

  /*************************** ENABLE GLOBAL INTERRUPTS *************************/

  sei();
     af2:	78 94       	sei
setup():
D:\MSDA\Multi-Sensor-Data-Aggregator\MSDA_Firmware_USB/MSDA_Firmware_USB.ino:80
  }
}

// ── Setup / Loop ──────────────────────────────────────────────────
void setup() {
  Serial.begin(115200);
     af4:	40 e0       	ldi	r20, 0x00	; 0
     af6:	52 ec       	ldi	r21, 0xC2	; 194
     af8:	61 e0       	ldi	r22, 0x01	; 1
     afa:	70 e0       	ldi	r23, 0x00	; 0
     afc:	82 e1       	ldi	r24, 0x12	; 18
     afe:	98 e2       	ldi	r25, 0x28	; 40
     b00:	d0 dd       	rcall	.-1120   	; 0x6a2 <UartClass::begin(unsigned long)>
pinMode():
     b02:	61 e0       	ldi	r22, 0x01	; 1
     b04:	84 e0       	ldi	r24, 0x04	; 4
     b06:	55 db       	rcall	.-2390   	; 0x1b2 <pinMode.part.1>
     b08:	60 e0       	ldi	r22, 0x00	; 0
     b0a:	85 e0       	ldi	r24, 0x05	; 5
     b0c:	52 db       	rcall	.-2396   	; 0x1b2 <pinMode.part.1>
digitalWrite():
     b0e:	60 e0       	ldi	r22, 0x00	; 0
     b10:	84 e0       	ldi	r24, 0x04	; 4
     b12:	f0 da       	rcall	.-2592   	; 0xf4 <digitalWrite.part.2>
setup():
D:\MSDA\Multi-Sensor-Data-Aggregator\MSDA_Firmware_USB/MSDA_Firmware_USB.ino:87

  pinMode(PIN_TRIG, OUTPUT);
  pinMode(PIN_ECHO, INPUT);
  digitalWrite(PIN_TRIG, LOW);

  sendMsg("STATUS", "MSDA Firmware ready - USB Serial");
     b14:	60 eb       	ldi	r22, 0xB0	; 176
     b16:	79 e5       	ldi	r23, 0x59	; 89
     b18:	81 ed       	ldi	r24, 0xD1	; 209
     b1a:	99 e5       	ldi	r25, 0x59	; 89
     b1c:	20 de       	rcall	.-960    	; 0x75e <sendMsg(char const*, char const*)>
D:\MSDA\Multi-Sensor-Data-Aggregator\MSDA_Firmware_USB/MSDA_Firmware_USB.ino:88
  sendInventory();
     b1e:	13 de       	rcall	.-986    	; 0x746 <sendInventory()>
sendHeartbeat():
D:\MSDA\Multi-Sensor-Data-Aggregator\MSDA_Firmware_USB/MSDA_Firmware_USB.ino:31
  Serial.print('<'); Serial.print(type); Serial.print('|');
  Serial.print(millis()); Serial.print('|');
  Serial.print(content); Serial.println('>');
}

void sendHeartbeat() { sendMsg("HEARTBEAT", "OK"); }
     b20:	68 ed       	ldi	r22, 0xD8	; 216
     b22:	79 e5       	ldi	r23, 0x59	; 89
     b24:	8b ed       	ldi	r24, 0xDB	; 219
     b26:	99 e5       	ldi	r25, 0x59	; 89
     b28:	1a de       	rcall	.-972    	; 0x75e <sendMsg(char const*, char const*)>
setup():
     b2a:	77 db       	rcall	.-2322   	; 0x21a <millis>
D:\MSDA\Multi-Sensor-Data-Aggregator\MSDA_Firmware_USB/MSDA_Firmware_USB.ino:90
  digitalWrite(PIN_TRIG, LOW);

  sendMsg("STATUS", "MSDA Firmware ready - USB Serial");
  sendInventory();
  sendHeartbeat();
  tLastSample = tLastHeartbeat = millis();
     b2c:	60 93 0a 28 	sts	0x280A, r22	; 0x80280a <tLastHeartbeat>
     b30:	70 93 0b 28 	sts	0x280B, r23	; 0x80280b <tLastHeartbeat+0x1>
     b34:	80 93 0c 28 	sts	0x280C, r24	; 0x80280c <tLastHeartbeat+0x2>
     b38:	90 93 0d 28 	sts	0x280D, r25	; 0x80280d <tLastHeartbeat+0x3>
     b3c:	60 93 06 28 	sts	0x2806, r22	; 0x802806 <__data_end>
     b40:	70 93 07 28 	sts	0x2807, r23	; 0x802807 <__data_end+0x1>
     b44:	80 93 08 28 	sts	0x2808, r24	; 0x802808 <__data_end+0x2>
     b48:	90 93 09 28 	sts	0x2809, r25	; 0x802809 <__data_end+0x3>
delayMicroseconds():
     b4c:	87 e3       	ldi	r24, 0x37	; 55
C:\Users\Vedansh\AppData\Local\Arduino15\packages\MegaCoreX\hardware\megaavr\1.1.5\cores\coreX-corefiles/wiring.c:325
  us >>= 2; // us div 4, = 4 cycles

#endif

  // busy wait
  __asm__ __volatile__(
     b4e:	28 2e       	mov	r2, r24
     b50:	31 2c       	mov	r3, r1
loop():
D:\MSDA\Multi-Sensor-Data-Aggregator\MSDA_Firmware_USB/MSDA_Firmware_USB.ino:94
}

void loop() {
  unsigned long now = millis();
     b52:	63 db       	rcall	.-2362   	; 0x21a <millis>
     b54:	6d 87       	std	Y+13, r22	; 0x0d
     b56:	7e 87       	std	Y+14, r23	; 0x0e
     b58:	8f 87       	std	Y+15, r24	; 0x0f
     b5a:	98 8b       	std	Y+16, r25	; 0x10
pollSerial():
D:\MSDA\Multi-Sensor-Data-Aggregator\MSDA_Firmware_USB/MSDA_Firmware_USB.ino:70
    sendMsg("STATUS", "Config received");
  }
}

void pollSerial() {
  while (Serial.available()) {
     b5c:	82 e1       	ldi	r24, 0x12	; 18
     b5e:	98 e2       	ldi	r25, 0x28	; 40
     b60:	c7 db       	rcall	.-2162   	; 0x2f0 <UartClass::available()>
     b62:	89 2b       	or	r24, r25
     b64:	09 f4       	brne	.+2      	; 0xb68 <main+0x132>
     b66:	41 c1       	rjmp	.+642    	; 0xdea <main+0x3b4>
D:\MSDA\Multi-Sensor-Data-Aggregator\MSDA_Firmware_USB/MSDA_Firmware_USB.ino:71
    char c = (char)Serial.read();
     b68:	82 e1       	ldi	r24, 0x12	; 18
     b6a:	98 e2       	ldi	r25, 0x28	; 40
     b6c:	9f db       	rcall	.-2242   	; 0x2ac <UartClass::read()>
     b6e:	8c 33       	cpi	r24, 0x3C	; 60
D:\MSDA\Multi-Sensor-Data-Aggregator\MSDA_Firmware_USB/MSDA_Firmware_USB.ino:72
    if      (c == '<') { cmdBuf = ""; }
     b70:	31 f4       	brne	.+12     	; 0xb7e <main+0x148>
operator=():
     b72:	6f ea       	ldi	r22, 0xAF	; 175
     b74:	79 e5       	ldi	r23, 0x59	; 89
     b76:	8f ea       	ldi	r24, 0xAF	; 175
     b78:	98 e2       	ldi	r25, 0x28	; 40
     b7a:	5d de       	rcall	.-838    	; 0x836 <String::operator=(char const*) [clone .part.3]>
     b7c:	ef cf       	rjmp	.-34     	; 0xb5c <main+0x126>
     b7e:	40 91 b3 28 	lds	r20, 0x28B3	; 0x8028b3 <cmdBuf+0x4>
     b82:	50 91 b4 28 	lds	r21, 0x28B4	; 0x8028b4 <cmdBuf+0x5>
pollSerial():
     b86:	8e 33       	cpi	r24, 0x3E	; 62
     b88:	09 f0       	breq	.+2      	; 0xb8c <main+0x156>
D:\MSDA\Multi-Sensor-Data-Aggregator\MSDA_Firmware_USB/MSDA_Firmware_USB.ino:73
    else if (c == '>') { if (cmdBuf.length() > 0) { processCommand(cmdBuf); cmdBuf = ""; } }
     b8a:	0b c1       	rjmp	.+534    	; 0xda2 <main+0x36c>
     b8c:	41 15       	cp	r20, r1
     b8e:	51 05       	cpc	r21, r1
     b90:	29 f3       	breq	.-54     	; 0xb5c <main+0x126>
_ZN6String4initEv():
     b92:	1f 82       	std	Y+7, r1	; 0x07
     b94:	18 86       	std	Y+8, r1	; 0x08
C:\Users\Vedansh\AppData\Local\Arduino15\packages\MegaCoreX\hardware\megaavr\1.1.5\cores\coreX-corefiles\api/String.cpp:135
/*  Memory Management                        */
/*********************************************/

inline void String::init(void)
{
  buffer = NULL;
     b96:	19 86       	std	Y+9, r1	; 0x09
     b98:	1a 86       	std	Y+10, r1	; 0x0a
C:\Users\Vedansh\AppData\Local\Arduino15\packages\MegaCoreX\hardware\megaavr\1.1.5\cores\coreX-corefiles\api/String.cpp:136
  capacity = 0;
     b9a:	1b 86       	std	Y+11, r1	; 0x0b
C:\Users\Vedansh\AppData\Local\Arduino15\packages\MegaCoreX\hardware\megaavr\1.1.5\cores\coreX-corefiles\api/String.cpp:137
  len = 0;
     b9c:	1c 86       	std	Y+12, r1	; 0x0c
operator=():
     b9e:	60 91 af 28 	lds	r22, 0x28AF	; 0x8028af <cmdBuf>
C:\Users\Vedansh\AppData\Local\Arduino15\packages\MegaCoreX\hardware\megaavr\1.1.5\cores\coreX-corefiles\api/String.cpp:228

String &String::operator=(const String &rhs)
{
  if (this == &rhs) return *this;

  if (rhs.buffer)
     ba2:	70 91 b0 28 	lds	r23, 0x28B0	; 0x8028b0 <cmdBuf+0x1>
     ba6:	61 15       	cp	r22, r1
     ba8:	71 05       	cpc	r23, r1
     baa:	19 f0       	breq	.+6      	; 0xbb2 <main+0x17c>
     bac:	ce 01       	movw	r24, r28
C:\Users\Vedansh\AppData\Local\Arduino15\packages\MegaCoreX\hardware\megaavr\1.1.5\cores\coreX-corefiles\api/String.cpp:229
    copy(rhs.buffer, rhs.len);
     bae:	07 96       	adiw	r24, 0x07	; 7
     bb0:	19 de       	rcall	.-974    	; 0x7e4 <String::copy(char const*, unsigned int)>
trim():
     bb2:	af 80       	ldd	r10, Y+7	; 0x07
     bb4:	b8 84       	ldd	r11, Y+8	; 0x08
C:\Users\Vedansh\AppData\Local\Arduino15\packages\MegaCoreX\hardware\megaavr\1.1.5\cores\coreX-corefiles\api/String.cpp:766
  }
}

void String::trim(void)
{
  if (!buffer || len == 0) return;
     bb6:	a1 14       	cp	r10, r1
     bb8:	b1 04       	cpc	r11, r1
     bba:	39 f0       	breq	.+14     	; 0xbca <main+0x194>
     bbc:	eb 84       	ldd	r14, Y+11	; 0x0b
     bbe:	fc 84       	ldd	r15, Y+12	; 0x0c
     bc0:	65 01       	movw	r12, r10
     bc2:	e1 14       	cp	r14, r1
     bc4:	f1 04       	cpc	r15, r1
     bc6:	09 f0       	breq	.+2      	; 0xbca <main+0x194>
     bc8:	6d c0       	rjmp	.+218    	; 0xca4 <main+0x26e>
     bca:	cf 80       	ldd	r12, Y+7	; 0x07
     bcc:	d8 84       	ldd	r13, Y+8	; 0x08
indexOf():
     bce:	8b 85       	ldd	r24, Y+11	; 0x0b
C:\Users\Vedansh\AppData\Local\Arduino15\packages\MegaCoreX\hardware\megaavr\1.1.5\cores\coreX-corefiles\api/String.cpp:581
  return indexOf(c, 0);
}

int String::indexOf(char ch, unsigned int fromIndex) const
{
  if (fromIndex >= len) return -1;
     bd0:	9c 85       	ldd	r25, Y+12	; 0x0c
     bd2:	89 2b       	or	r24, r25
     bd4:	09 f4       	brne	.+2      	; 0xbd8 <main+0x1a2>
     bd6:	51 c0       	rjmp	.+162    	; 0xc7a <main+0x244>
     bd8:	6c e7       	ldi	r22, 0x7C	; 124
C:\Users\Vedansh\AppData\Local\Arduino15\packages\MegaCoreX\hardware\megaavr\1.1.5\cores\coreX-corefiles\api/String.cpp:582
  const char *temp = strchr(buffer + fromIndex, ch);
     bda:	70 e0       	ldi	r23, 0x00	; 0
     bdc:	c6 01       	movw	r24, r12
     bde:	4e d6       	rcall	.+3228   	; 0x187c <strchr>
     be0:	00 97       	sbiw	r24, 0x00	; 0
     be2:	09 f4       	brne	.+2      	; 0xbe6 <main+0x1b0>
C:\Users\Vedansh\AppData\Local\Arduino15\packages\MegaCoreX\hardware\megaavr\1.1.5\cores\coreX-corefiles\api/String.cpp:583
  if (temp == NULL) return -1;
     be4:	4a c0       	rjmp	.+148    	; 0xc7a <main+0x244>
     be6:	7c 01       	movw	r14, r24
     be8:	ec 18       	sub	r14, r12
C:\Users\Vedansh\AppData\Local\Arduino15\packages\MegaCoreX\hardware\megaavr\1.1.5\cores\coreX-corefiles\api/String.cpp:584
  return temp - buffer;
     bea:	fd 08       	sbc	r15, r13
processCommand():
     bec:	f7 fc       	sbrc	r15, 7
D:\MSDA\Multi-Sensor-Data-Aggregator\MSDA_Firmware_USB/MSDA_Firmware_USB.ino:59
// ── Command parser ────────────────────────────────────────────────
void processCommand(const String& raw) {
  String verb = raw;
  verb.trim();
  int sep = verb.indexOf('|');
  if (sep >= 0) verb = verb.substring(0, sep);
     bee:	45 c0       	rjmp	.+138    	; 0xc7a <main+0x244>
_ZN6String4initEv():
     bf0:	19 82       	std	Y+1, r1	; 0x01
C:\Users\Vedansh\AppData\Local\Arduino15\packages\MegaCoreX\hardware\megaavr\1.1.5\cores\coreX-corefiles\api/String.cpp:135
/*  Memory Management                        */
/*********************************************/

inline void String::init(void)
{
  buffer = NULL;
     bf2:	1a 82       	std	Y+2, r1	; 0x02
     bf4:	1b 82       	std	Y+3, r1	; 0x03
C:\Users\Vedansh\AppData\Local\Arduino15\packages\MegaCoreX\hardware\megaavr\1.1.5\cores\coreX-corefiles\api/String.cpp:136
  capacity = 0;
     bf6:	1c 82       	std	Y+4, r1	; 0x04
     bf8:	1d 82       	std	Y+5, r1	; 0x05
C:\Users\Vedansh\AppData\Local\Arduino15\packages\MegaCoreX\hardware\megaavr\1.1.5\cores\coreX-corefiles\api/String.cpp:137
  len = 0;
     bfa:	1e 82       	std	Y+6, r1	; 0x06
__base_ctor ():
     bfc:	50 e0       	ldi	r21, 0x00	; 0
C:\Users\Vedansh\AppData\Local\Arduino15\packages\MegaCoreX\hardware\megaavr\1.1.5\cores\coreX-corefiles\api/String.cpp:33
/*********************************************/

String::String(const char *cstr)
{
  init();
  if (cstr) copy(cstr, strlen(cstr));
     bfe:	40 e0       	ldi	r20, 0x00	; 0
     c00:	6f ea       	ldi	r22, 0xAF	; 175
     c02:	79 e5       	ldi	r23, 0x59	; 89
     c04:	ce 01       	movw	r24, r28
     c06:	01 96       	adiw	r24, 0x01	; 1
     c08:	ed dd       	rcall	.-1062   	; 0x7e4 <String::copy(char const*, unsigned int)>
substring():
     c0a:	8b 85       	ldd	r24, Y+11	; 0x0b
     c0c:	9c 85       	ldd	r25, Y+12	; 0x0c
C:\Users\Vedansh\AppData\Local\Arduino15\packages\MegaCoreX\hardware\megaavr\1.1.5\cores\coreX-corefiles\api/String.cpp:644
    unsigned int temp = right;
    right = left;
    left = temp;
  }
  String out;
  if (left >= len) return out;
     c0e:	00 97       	sbiw	r24, 0x00	; 0
     c10:	c9 f0       	breq	.+50     	; 0xc44 <main+0x20e>
     c12:	8e 15       	cp	r24, r14
     c14:	9f 05       	cpc	r25, r15
     c16:	08 f4       	brcc	.+2      	; 0xc1a <main+0x1e4>
     c18:	7c 01       	movw	r14, r24
     c1a:	ef 81       	ldd	r30, Y+7	; 0x07
C:\Users\Vedansh\AppData\Local\Arduino15\packages\MegaCoreX\hardware\megaavr\1.1.5\cores\coreX-corefiles\api/String.cpp:646
  if (right > len) right = len;
  char temp = buffer[right]; // save the replaced character
     c1c:	f8 85       	ldd	r31, Y+8	; 0x08
     c1e:	ee 0d       	add	r30, r14
     c20:	ff 1d       	adc	r31, r15
     c22:	d0 80       	ld	r13, Z
     c24:	10 82       	st	Z, r1
C:\Users\Vedansh\AppData\Local\Arduino15\packages\MegaCoreX\hardware\megaavr\1.1.5\cores\coreX-corefiles\api/String.cpp:647
  buffer[right] = '\0';
     c26:	6f 81       	ldd	r22, Y+7	; 0x07
C:\Users\Vedansh\AppData\Local\Arduino15\packages\MegaCoreX\hardware\megaavr\1.1.5\cores\coreX-corefiles\api/String.cpp:648
  out = buffer + left;  // pointer arithmetic
     c28:	78 85       	ldd	r23, Y+8	; 0x08
operator=():
     c2a:	61 15       	cp	r22, r1
C:\Users\Vedansh\AppData\Local\Arduino15\packages\MegaCoreX\hardware\megaavr\1.1.5\cores\coreX-corefiles\api/String.cpp:252
}
#endif

String &String::operator=(const char *cstr)
{
  if (cstr)
     c2c:	71 05       	cpc	r23, r1
     c2e:	09 f4       	brne	.+2      	; 0xc32 <main+0x1fc>
     c30:	6f c0       	rjmp	.+222    	; 0xd10 <main+0x2da>
     c32:	ce 01       	movw	r24, r28
     c34:	01 96       	adiw	r24, 0x01	; 1
     c36:	ff dd       	rcall	.-1026   	; 0x836 <String::operator=(char const*) [clone .part.3]>
substring():
     c38:	8f 81       	ldd	r24, Y+7	; 0x07
     c3a:	98 85       	ldd	r25, Y+8	; 0x08
C:\Users\Vedansh\AppData\Local\Arduino15\packages\MegaCoreX\hardware\megaavr\1.1.5\cores\coreX-corefiles\api/String.cpp:649
  if (left >= len) return out;
  if (right > len) right = len;
  char temp = buffer[right]; // save the replaced character
  buffer[right] = '\0';
  out = buffer + left;  // pointer arithmetic
  buffer[right] = temp; //restore character
     c3c:	e8 0e       	add	r14, r24
     c3e:	f9 1e       	adc	r15, r25
     c40:	d7 01       	movw	r26, r14
     c42:	dc 92       	st	X, r13
move():
     c44:	8f 81       	ldd	r24, Y+7	; 0x07
     c46:	98 85       	ldd	r25, Y+8	; 0x08
C:\Users\Vedansh\AppData\Local\Arduino15\packages\MegaCoreX\hardware\megaavr\1.1.5\cores\coreX-corefiles\api/String.cpp:201
}

#if __cplusplus >= 201103L || defined(__GXX_EXPERIMENTAL_CXX0X__)
void String::move(String &rhs)
{
  if (buffer)
     c48:	00 97       	sbiw	r24, 0x00	; 0
     c4a:	09 f4       	brne	.+2      	; 0xc4e <main+0x218>
     c4c:	6e c0       	rjmp	.+220    	; 0xd2a <main+0x2f4>
     c4e:	69 81       	ldd	r22, Y+1	; 0x01
     c50:	7a 81       	ldd	r23, Y+2	; 0x02
_ZNK6StringcvMS_KFvvEEv.isra.0():
     c52:	61 15       	cp	r22, r1
C:\Users\Vedansh\AppData\Local\Arduino15\packages\MegaCoreX\hardware\megaavr\1.1.5\cores\coreX-corefiles\api/String.h:186
  friend StringSumHelper &operator+(const StringSumHelper &lhs, float num);
  friend StringSumHelper &operator+(const StringSumHelper &lhs, double num);
  friend StringSumHelper &operator+(const StringSumHelper &lhs, const __FlashStringHelper *rhs);

  // comparison (only works w/ Strings and "strings")
  operator StringIfHelperType() const { return buffer ? &String::StringIfHelper : 0; }
     c54:	71 05       	cpc	r23, r1
     c56:	09 f4       	brne	.+2      	; 0xc5a <main+0x224>
     c58:	67 c0       	rjmp	.+206    	; 0xd28 <main+0x2f2>
move():
C:\Users\Vedansh\AppData\Local\Arduino15\packages\MegaCoreX\hardware\megaavr\1.1.5\cores\coreX-corefiles\api/String.cpp:203
  {
    if (rhs && capacity >= rhs.len)
     c5a:	49 85       	ldd	r20, Y+9	; 0x09
     c5c:	5a 85       	ldd	r21, Y+10	; 0x0a
     c5e:	2d 81       	ldd	r18, Y+5	; 0x05
     c60:	3e 81       	ldd	r19, Y+6	; 0x06
     c62:	42 17       	cp	r20, r18
     c64:	53 07       	cpc	r21, r19
     c66:	08 f4       	brcc	.+2      	; 0xc6a <main+0x234>
     c68:	5f c0       	rjmp	.+190    	; 0xd28 <main+0x2f2>
C:\Users\Vedansh\AppData\Local\Arduino15\packages\MegaCoreX\hardware\megaavr\1.1.5\cores\coreX-corefiles\api/String.cpp:205
    {
      strcpy(buffer, rhs.buffer);
     c6a:	1c d6       	rcall	.+3128   	; 0x18a4 <strcpy>
     c6c:	8d 81       	ldd	r24, Y+5	; 0x05
C:\Users\Vedansh\AppData\Local\Arduino15\packages\MegaCoreX\hardware\megaavr\1.1.5\cores\coreX-corefiles\api/String.cpp:206
      len = rhs.len;
     c6e:	9e 81       	ldd	r25, Y+6	; 0x06
     c70:	8b 87       	std	Y+11, r24	; 0x0b
     c72:	9c 87       	std	Y+12, r25	; 0x0c
__base_dtor ():
     c74:	89 81       	ldd	r24, Y+1	; 0x01
C:\Users\Vedansh\AppData\Local\Arduino15\packages\MegaCoreX\hardware\megaavr\1.1.5\cores\coreX-corefiles\api/String.cpp:126
  *this = dtostrf(value, (decimalPlaces + 2), decimalPlaces, buf);
}

String::~String()
{
  free(buffer);
     c76:	9a 81       	ldd	r25, Y+2	; 0x02
     c78:	b1 d4       	rcall	.+2402   	; 0x15dc <free>
toUpperCase():
     c7a:	ef 80       	ldd	r14, Y+7	; 0x07
C:\Users\Vedansh\AppData\Local\Arduino15\packages\MegaCoreX\hardware\megaavr\1.1.5\cores\coreX-corefiles\api/String.cpp:757
  }
}

void String::toUpperCase(void)
{
  if (!buffer) return;
     c7c:	f8 84       	ldd	r15, Y+8	; 0x08
     c7e:	e1 14       	cp	r14, r1
     c80:	f1 04       	cpc	r15, r1
     c82:	09 f4       	brne	.+2      	; 0xc86 <main+0x250>
     c84:	61 c0       	rjmp	.+194    	; 0xd48 <main+0x312>
     c86:	f7 01       	movw	r30, r14
C:\Users\Vedansh\AppData\Local\Arduino15\packages\MegaCoreX\hardware\megaavr\1.1.5\cores\coreX-corefiles\api/String.cpp:758
  for (char *p = buffer; *p; p++)
     c88:	81 91       	ld	r24, Z+
     c8a:	7f 01       	movw	r14, r30
     c8c:	88 23       	and	r24, r24
     c8e:	09 f4       	brne	.+2      	; 0xc92 <main+0x25c>
     c90:	5b c0       	rjmp	.+182    	; 0xd48 <main+0x312>
C:\Users\Vedansh\AppData\Local\Arduino15\packages\MegaCoreX\hardware\megaavr\1.1.5\cores\coreX-corefiles\api/String.cpp:760
  {
    *p = toupper(*p);
     c92:	08 2e       	mov	r0, r24
     c94:	00 0c       	add	r0, r0
     c96:	99 0b       	sbc	r25, r25
     c98:	e0 d5       	rcall	.+3008   	; 0x185a <toupper>
     c9a:	f7 01       	movw	r30, r14
     c9c:	31 97       	sbiw	r30, 0x01	; 1
     c9e:	80 83       	st	Z, r24
     ca0:	f2 cf       	rjmp	.-28     	; 0xc86 <main+0x250>
trim():
     ca2:	64 01       	movw	r12, r8
C:\Users\Vedansh\AppData\Local\Arduino15\packages\MegaCoreX\hardware\megaavr\1.1.5\cores\coreX-corefiles\api/String.cpp:768

void String::trim(void)
{
  if (!buffer || len == 0) return;
  char *begin = buffer;
  while (isspace(*begin)) begin++;
     ca4:	46 01       	movw	r8, r12
     ca6:	5f ef       	ldi	r21, 0xFF	; 255
     ca8:	85 1a       	sub	r8, r21
     caa:	95 0a       	sbc	r9, r21
     cac:	d6 01       	movw	r26, r12
     cae:	8c 91       	ld	r24, X
     cb0:	08 2e       	mov	r0, r24
     cb2:	00 0c       	add	r0, r0
     cb4:	99 0b       	sbc	r25, r25
     cb6:	a5 d1       	rcall	.+842    	; 0x1002 <isspace>
     cb8:	89 2b       	or	r24, r25
     cba:	99 f7       	brne	.-26     	; 0xca2 <main+0x26c>
     cbc:	b1 e0       	ldi	r27, 0x01	; 1
C:\Users\Vedansh\AppData\Local\Arduino15\packages\MegaCoreX\hardware\megaavr\1.1.5\cores\coreX-corefiles\api/String.cpp:769
  char *end = buffer + len - 1;
     cbe:	eb 1a       	sub	r14, r27
     cc0:	f1 08       	sbc	r15, r1
     cc2:	ea 0c       	add	r14, r10
     cc4:	fb 1c       	adc	r15, r11
     cc6:	f7 01       	movw	r30, r14
C:\Users\Vedansh\AppData\Local\Arduino15\packages\MegaCoreX\hardware\megaavr\1.1.5\cores\coreX-corefiles\api/String.cpp:770
  while (isspace(*end) && end >= begin) end--;
     cc8:	80 81       	ld	r24, Z
     cca:	08 2e       	mov	r0, r24
     ccc:	00 0c       	add	r0, r0
     cce:	99 0b       	sbc	r25, r25
     cd0:	98 d1       	rcall	.+816    	; 0x1002 <isspace>
     cd2:	89 2b       	or	r24, r25
     cd4:	39 f0       	breq	.+14     	; 0xce4 <main+0x2ae>
     cd6:	ec 14       	cp	r14, r12
     cd8:	fd 04       	cpc	r15, r13
     cda:	20 f0       	brcs	.+8      	; 0xce4 <main+0x2ae>
     cdc:	f1 e0       	ldi	r31, 0x01	; 1
     cde:	ef 1a       	sub	r14, r31
     ce0:	f1 08       	sbc	r15, r1
     ce2:	f1 cf       	rjmp	.-30     	; 0xcc6 <main+0x290>
     ce4:	2f ef       	ldi	r18, 0xFF	; 255
C:\Users\Vedansh\AppData\Local\Arduino15\packages\MegaCoreX\hardware\megaavr\1.1.5\cores\coreX-corefiles\api/String.cpp:771
  len = end + 1 - begin;
     ce6:	e2 1a       	sub	r14, r18
     ce8:	f2 0a       	sbc	r15, r18
     cea:	a7 01       	movw	r20, r14
     cec:	4c 19       	sub	r20, r12
     cee:	5d 09       	sbc	r21, r13
     cf0:	4b 87       	std	Y+11, r20	; 0x0b
     cf2:	5c 87       	std	Y+12, r21	; 0x0c
C:\Users\Vedansh\AppData\Local\Arduino15\packages\MegaCoreX\hardware\megaavr\1.1.5\cores\coreX-corefiles\api/String.cpp:772
  if (begin > buffer) memcpy(buffer, begin, len);
     cf4:	ac 14       	cp	r10, r12
     cf6:	bd 04       	cpc	r11, r13
     cf8:	18 f4       	brcc	.+6      	; 0xd00 <main+0x2ca>
     cfa:	b6 01       	movw	r22, r12
     cfc:	c5 01       	movw	r24, r10
     cfe:	b5 d5       	rcall	.+2922   	; 0x186a <memcpy>
C:\Users\Vedansh\AppData\Local\Arduino15\packages\MegaCoreX\hardware\megaavr\1.1.5\cores\coreX-corefiles\api/String.cpp:773
  buffer[len] = 0;
     d00:	ef 81       	ldd	r30, Y+7	; 0x07
     d02:	f8 85       	ldd	r31, Y+8	; 0x08
     d04:	8b 85       	ldd	r24, Y+11	; 0x0b
     d06:	9c 85       	ldd	r25, Y+12	; 0x0c
     d08:	e8 0f       	add	r30, r24
     d0a:	f9 1f       	adc	r31, r25
     d0c:	10 82       	st	Z, r1
     d0e:	5d cf       	rjmp	.-326    	; 0xbca <main+0x194>
invalidate():
C:\Users\Vedansh\AppData\Local\Arduino15\packages\MegaCoreX\hardware\megaavr\1.1.5\cores\coreX-corefiles\api/String.cpp:142
  len = 0;
}

void String::invalidate(void)
{
  if (buffer) free(buffer);
     d10:	89 81       	ldd	r24, Y+1	; 0x01
     d12:	9a 81       	ldd	r25, Y+2	; 0x02
     d14:	00 97       	sbiw	r24, 0x00	; 0
     d16:	09 f0       	breq	.+2      	; 0xd1a <main+0x2e4>
     d18:	61 d4       	rcall	.+2242   	; 0x15dc <free>
     d1a:	19 82       	std	Y+1, r1	; 0x01
C:\Users\Vedansh\AppData\Local\Arduino15\packages\MegaCoreX\hardware\megaavr\1.1.5\cores\coreX-corefiles\api/String.cpp:143
  buffer = NULL;
     d1c:	1a 82       	std	Y+2, r1	; 0x02
     d1e:	1d 82       	std	Y+5, r1	; 0x05
C:\Users\Vedansh\AppData\Local\Arduino15\packages\MegaCoreX\hardware\megaavr\1.1.5\cores\coreX-corefiles\api/String.cpp:144
  capacity = len = 0;
     d20:	1e 82       	std	Y+6, r1	; 0x06
     d22:	1b 82       	std	Y+3, r1	; 0x03
     d24:	1c 82       	std	Y+4, r1	; 0x04
     d26:	88 cf       	rjmp	.-240    	; 0xc38 <main+0x202>
move():
     d28:	59 d4       	rcall	.+2226   	; 0x15dc <free>
C:\Users\Vedansh\AppData\Local\Arduino15\packages\MegaCoreX\hardware\megaavr\1.1.5\cores\coreX-corefiles\api/String.cpp:212
      rhs.len = 0;
      return;
    }
    else
    {
      free(buffer);
     d2a:	89 81       	ldd	r24, Y+1	; 0x01
C:\Users\Vedansh\AppData\Local\Arduino15\packages\MegaCoreX\hardware\megaavr\1.1.5\cores\coreX-corefiles\api/String.cpp:215
    }
  }
  buffer = rhs.buffer;
     d2c:	9a 81       	ldd	r25, Y+2	; 0x02
     d2e:	8f 83       	std	Y+7, r24	; 0x07
     d30:	98 87       	std	Y+8, r25	; 0x08
     d32:	8b 81       	ldd	r24, Y+3	; 0x03
C:\Users\Vedansh\AppData\Local\Arduino15\packages\MegaCoreX\hardware\megaavr\1.1.5\cores\coreX-corefiles\api/String.cpp:216
  capacity = rhs.capacity;
     d34:	9c 81       	ldd	r25, Y+4	; 0x04
     d36:	89 87       	std	Y+9, r24	; 0x09
     d38:	9a 87       	std	Y+10, r25	; 0x0a
C:\Users\Vedansh\AppData\Local\Arduino15\packages\MegaCoreX\hardware\megaavr\1.1.5\cores\coreX-corefiles\api/String.cpp:217
  len = rhs.len;
     d3a:	8d 81       	ldd	r24, Y+5	; 0x05
     d3c:	9e 81       	ldd	r25, Y+6	; 0x06
     d3e:	8b 87       	std	Y+11, r24	; 0x0b
C:\Users\Vedansh\AppData\Local\Arduino15\packages\MegaCoreX\hardware\megaavr\1.1.5\cores\coreX-corefiles\api/String.cpp:218
  rhs.buffer = NULL;
     d40:	9c 87       	std	Y+12, r25	; 0x0c
     d42:	19 82       	std	Y+1, r1	; 0x01
C:\Users\Vedansh\AppData\Local\Arduino15\packages\MegaCoreX\hardware\megaavr\1.1.5\cores\coreX-corefiles\api/String.cpp:468
  return (len == s2.len && compareTo(s2) == 0);
}

unsigned char String::equals(const char *cstr) const
{
  if (len == 0) return (cstr == NULL || *cstr == 0);
     d44:	1a 82       	std	Y+2, r1	; 0x02
     d46:	96 cf       	rjmp	.-212    	; 0xc74 <main+0x23e>
equals():
     d48:	8b 85       	ldd	r24, Y+11	; 0x0b
     d4a:	9c 85       	ldd	r25, Y+12	; 0x0c
     d4c:	89 2b       	or	r24, r25
C:\Users\Vedansh\AppData\Local\Arduino15\packages\MegaCoreX\hardware\megaavr\1.1.5\cores\coreX-corefiles\api/String.cpp:470
  if (cstr == NULL) return buffer[0] == 0;
  return strcmp(buffer, cstr) == 0;
     d4e:	d1 f0       	breq	.+52     	; 0xd84 <main+0x34e>
     d50:	ef 80       	ldd	r14, Y+7	; 0x07
     d52:	f8 84       	ldd	r15, Y+8	; 0x08
     d54:	61 ed       	ldi	r22, 0xD1	; 209
D:\MSDA\Multi-Sensor-Data-Aggregator\MSDA_Firmware_USB/MSDA_Firmware_USB.ino:62
  verb.toUpperCase();

  if (verb == "STATUS" || verb == "INVENTORY" || verb == "DETECT") {
     d56:	79 e5       	ldi	r23, 0x59	; 89
C:\Users\Vedansh\AppData\Local\Arduino15\packages\MegaCoreX\hardware\megaavr\1.1.5\cores\coreX-corefiles\api/String.cpp:470
     d58:	c7 01       	movw	r24, r14
     d5a:	9b d5       	rcall	.+2870   	; 0x1892 <strcmp>
processCommand():
     d5c:	89 2b       	or	r24, r25
     d5e:	61 f0       	breq	.+24     	; 0xd78 <main+0x342>
equals():
     d60:	65 ee       	ldi	r22, 0xE5	; 229
D:\MSDA\Multi-Sensor-Data-Aggregator\MSDA_Firmware_USB/MSDA_Firmware_USB.ino:62
     d62:	79 e5       	ldi	r23, 0x59	; 89
     d64:	c7 01       	movw	r24, r14
C:\Users\Vedansh\AppData\Local\Arduino15\packages\MegaCoreX\hardware\megaavr\1.1.5\cores\coreX-corefiles\api/String.cpp:470
     d66:	95 d5       	rcall	.+2858   	; 0x1892 <strcmp>
processCommand():
     d68:	89 2b       	or	r24, r25
     d6a:	31 f0       	breq	.+12     	; 0xd78 <main+0x342>
equals():
     d6c:	6f ee       	ldi	r22, 0xEF	; 239
     d6e:	79 e5       	ldi	r23, 0x59	; 89
D:\MSDA\Multi-Sensor-Data-Aggregator\MSDA_Firmware_USB/MSDA_Firmware_USB.ino:62
     d70:	c7 01       	movw	r24, r14
     d72:	8f d5       	rcall	.+2846   	; 0x1892 <strcmp>
processCommand():
D:\MSDA\Multi-Sensor-Data-Aggregator\MSDA_Firmware_USB/MSDA_Firmware_USB.ino:63
    sendInventory(); sendHeartbeat();
     d74:	89 2b       	or	r24, r25
     d76:	51 f4       	brne	.+20     	; 0xd8c <main+0x356>
D:\MSDA\Multi-Sensor-Data-Aggregator\MSDA_Firmware_USB/MSDA_Firmware_USB.ino:31
  Serial.print('<'); Serial.print(type); Serial.print('|');
  Serial.print(millis()); Serial.print('|');
  Serial.print(content); Serial.println('>');
}

void sendHeartbeat() { sendMsg("HEARTBEAT", "OK"); }
     d78:	e6 dc       	rcall	.-1588   	; 0x746 <sendInventory()>
sendHeartbeat():
     d7a:	68 ed       	ldi	r22, 0xD8	; 216
     d7c:	79 e5       	ldi	r23, 0x59	; 89
     d7e:	8b ed       	ldi	r24, 0xDB	; 219
D:\MSDA\Multi-Sensor-Data-Aggregator\MSDA_Firmware_USB/MSDA_Firmware_USB.ino:65
  verb.toUpperCase();

  if (verb == "STATUS" || verb == "INVENTORY" || verb == "DETECT") {
    sendInventory(); sendHeartbeat();
  } else if (verb == "CONFIG") {
    sendMsg("STATUS", "Config received");
     d80:	99 e5       	ldi	r25, 0x59	; 89
processCommand():
C:\Users\Vedansh\AppData\Local\Arduino15\packages\MegaCoreX\hardware\megaavr\1.1.5\cores\coreX-corefiles\api/String.cpp:126
  *this = dtostrf(value, (decimalPlaces + 2), decimalPlaces, buf);
}

String::~String()
{
  free(buffer);
     d82:	ed dc       	rcall	.-1574   	; 0x75e <sendMsg(char const*, char const*)>
__base_dtor ():
     d84:	8f 81       	ldd	r24, Y+7	; 0x07
     d86:	98 85       	ldd	r25, Y+8	; 0x08
     d88:	29 d4       	rcall	.+2130   	; 0x15dc <free>
     d8a:	f3 ce       	rjmp	.-538    	; 0xb72 <main+0x13c>
equals():
C:\Users\Vedansh\AppData\Local\Arduino15\packages\MegaCoreX\hardware\megaavr\1.1.5\cores\coreX-corefiles\api/String.cpp:470

unsigned char String::equals(const char *cstr) const
{
  if (len == 0) return (cstr == NULL || *cstr == 0);
  if (cstr == NULL) return buffer[0] == 0;
  return strcmp(buffer, cstr) == 0;
     d8c:	66 ef       	ldi	r22, 0xF6	; 246
     d8e:	79 e5       	ldi	r23, 0x59	; 89
     d90:	c7 01       	movw	r24, r14
     d92:	7f d5       	rcall	.+2814   	; 0x1892 <strcmp>
processCommand():
     d94:	89 2b       	or	r24, r25
D:\MSDA\Multi-Sensor-Data-Aggregator\MSDA_Firmware_USB/MSDA_Firmware_USB.ino:64
  if (sep >= 0) verb = verb.substring(0, sep);
  verb.toUpperCase();

  if (verb == "STATUS" || verb == "INVENTORY" || verb == "DETECT") {
    sendInventory(); sendHeartbeat();
  } else if (verb == "CONFIG") {
     d96:	b1 f7       	brne	.-20     	; 0xd84 <main+0x34e>
     d98:	6d ef       	ldi	r22, 0xFD	; 253
D:\MSDA\Multi-Sensor-Data-Aggregator\MSDA_Firmware_USB/MSDA_Firmware_USB.ino:65
    sendMsg("STATUS", "Config received");
     d9a:	79 e5       	ldi	r23, 0x59	; 89
     d9c:	81 ed       	ldi	r24, 0xD1	; 209
     d9e:	99 e5       	ldi	r25, 0x59	; 89
     da0:	f0 cf       	rjmp	.-32     	; 0xd82 <main+0x34c>
pollSerial():
D:\MSDA\Multi-Sensor-Data-Aggregator\MSDA_Firmware_USB/MSDA_Firmware_USB.ino:74
void pollSerial() {
  while (Serial.available()) {
    char c = (char)Serial.read();
    if      (c == '<') { cmdBuf = ""; }
    else if (c == '>') { if (cmdBuf.length() > 0) { processCommand(cmdBuf); cmdBuf = ""; } }
    else if (cmdBuf.length() < 120) { cmdBuf += c; }
     da2:	48 37       	cpi	r20, 0x78	; 120
     da4:	51 05       	cpc	r21, r1
     da6:	08 f0       	brcs	.+2      	; 0xdaa <main+0x374>
     da8:	d9 ce       	rjmp	.-590    	; 0xb5c <main+0x126>
concat():
C:\Users\Vedansh\AppData\Local\Arduino15\packages\MegaCoreX\hardware\megaavr\1.1.5\cores\coreX-corefiles\api/String.cpp:299
}

unsigned char String::concat(char c)
{
  char buf[2];
  buf[0] = c;
     daa:	89 83       	std	Y+1, r24	; 0x01
C:\Users\Vedansh\AppData\Local\Arduino15\packages\MegaCoreX\hardware\megaavr\1.1.5\cores\coreX-corefiles\api/String.cpp:300
  buf[1] = 0;
     dac:	1a 82       	std	Y+2, r1	; 0x02
C:\Users\Vedansh\AppData\Local\Arduino15\packages\MegaCoreX\hardware\megaavr\1.1.5\cores\coreX-corefiles\api/String.cpp:281
  return concat(s.buffer, s.len);
}

unsigned char String::concat(const char *cstr, unsigned int length)
{
  unsigned int newlen = len + length;
     dae:	7a 01       	movw	r14, r20
     db0:	ff ef       	ldi	r31, 0xFF	; 255
     db2:	ef 1a       	sub	r14, r31
     db4:	ff 0a       	sbc	r15, r31
C:\Users\Vedansh\AppData\Local\Arduino15\packages\MegaCoreX\hardware\megaavr\1.1.5\cores\coreX-corefiles\api/String.cpp:284
  if (!cstr) return 0;
  if (length == 0) return 1;
  if (!reserve(newlen)) return 0;
     db6:	b7 01       	movw	r22, r14
     db8:	8f ea       	ldi	r24, 0xAF	; 175
     dba:	98 e2       	ldi	r25, 0x28	; 40
     dbc:	ec dc       	rcall	.-1576   	; 0x796 <String::reserve(unsigned int)>
     dbe:	88 23       	and	r24, r24
     dc0:	09 f4       	brne	.+2      	; 0xdc4 <main+0x38e>
     dc2:	cc ce       	rjmp	.-616    	; 0xb5c <main+0x126>
     dc4:	20 91 af 28 	lds	r18, 0x28AF	; 0x8028af <cmdBuf>
C:\Users\Vedansh\AppData\Local\Arduino15\packages\MegaCoreX\hardware\megaavr\1.1.5\cores\coreX-corefiles\api/String.cpp:285
  strcpy(buffer + len, cstr);
     dc8:	30 91 b0 28 	lds	r19, 0x28B0	; 0x8028b0 <cmdBuf+0x1>
     dcc:	80 91 b3 28 	lds	r24, 0x28B3	; 0x8028b3 <cmdBuf+0x4>
     dd0:	90 91 b4 28 	lds	r25, 0x28B4	; 0x8028b4 <cmdBuf+0x5>
     dd4:	be 01       	movw	r22, r28
     dd6:	6f 5f       	subi	r22, 0xFF	; 255
     dd8:	7f 4f       	sbci	r23, 0xFF	; 255
     dda:	82 0f       	add	r24, r18
     ddc:	93 1f       	adc	r25, r19
     dde:	62 d5       	rcall	.+2756   	; 0x18a4 <strcpy>
     de0:	e0 92 b3 28 	sts	0x28B3, r14	; 0x8028b3 <cmdBuf+0x4>
C:\Users\Vedansh\AppData\Local\Arduino15\packages\MegaCoreX\hardware\megaavr\1.1.5\cores\coreX-corefiles\api/String.cpp:286
  len = newlen;
     de4:	f0 92 b4 28 	sts	0x28B4, r15	; 0x8028b4 <cmdBuf+0x5>
     de8:	b9 ce       	rjmp	.-654    	; 0xb5c <main+0x126>
loop():
     dea:	80 91 0a 28 	lds	r24, 0x280A	; 0x80280a <tLastHeartbeat>
D:\MSDA\Multi-Sensor-Data-Aggregator\MSDA_Firmware_USB/MSDA_Firmware_USB.ino:97

void loop() {
  unsigned long now = millis();
  pollSerial();

  if (now - tLastHeartbeat >= heartbeatMs) {
     dee:	90 91 0b 28 	lds	r25, 0x280B	; 0x80280b <tLastHeartbeat+0x1>
     df2:	a0 91 0c 28 	lds	r26, 0x280C	; 0x80280c <tLastHeartbeat+0x2>
     df6:	b0 91 0d 28 	lds	r27, 0x280D	; 0x80280d <tLastHeartbeat+0x3>
     dfa:	2d 85       	ldd	r18, Y+13	; 0x0d
     dfc:	3e 85       	ldd	r19, Y+14	; 0x0e
     dfe:	4f 85       	ldd	r20, Y+15	; 0x0f
     e00:	58 89       	ldd	r21, Y+16	; 0x10
     e02:	28 1b       	sub	r18, r24
     e04:	39 0b       	sbc	r19, r25
     e06:	4a 0b       	sbc	r20, r26
     e08:	5b 0b       	sbc	r21, r27
     e0a:	da 01       	movw	r26, r20
     e0c:	c9 01       	movw	r24, r18
     e0e:	88 38       	cpi	r24, 0x88	; 136
     e10:	93 41       	sbci	r25, 0x13	; 19
     e12:	a1 05       	cpc	r26, r1
     e14:	b1 05       	cpc	r27, r1
     e16:	88 f0       	brcs	.+34     	; 0xe3a <main+0x404>
sendHeartbeat():
     e18:	68 ed       	ldi	r22, 0xD8	; 216
D:\MSDA\Multi-Sensor-Data-Aggregator\MSDA_Firmware_USB/MSDA_Firmware_USB.ino:31
  Serial.print('<'); Serial.print(type); Serial.print('|');
  Serial.print(millis()); Serial.print('|');
  Serial.print(content); Serial.println('>');
}

void sendHeartbeat() { sendMsg("HEARTBEAT", "OK"); }
     e1a:	79 e5       	ldi	r23, 0x59	; 89
     e1c:	8b ed       	ldi	r24, 0xDB	; 219
     e1e:	99 e5       	ldi	r25, 0x59	; 89
     e20:	9e dc       	rcall	.-1732   	; 0x75e <sendMsg(char const*, char const*)>
loop():
     e22:	8d 85       	ldd	r24, Y+13	; 0x0d
     e24:	9e 85       	ldd	r25, Y+14	; 0x0e
D:\MSDA\Multi-Sensor-Data-Aggregator\MSDA_Firmware_USB/MSDA_Firmware_USB.ino:98
void loop() {
  unsigned long now = millis();
  pollSerial();

  if (now - tLastHeartbeat >= heartbeatMs) {
    sendHeartbeat(); tLastHeartbeat = now;
     e26:	af 85       	ldd	r26, Y+15	; 0x0f
     e28:	b8 89       	ldd	r27, Y+16	; 0x10
     e2a:	80 93 0a 28 	sts	0x280A, r24	; 0x80280a <tLastHeartbeat>
     e2e:	90 93 0b 28 	sts	0x280B, r25	; 0x80280b <tLastHeartbeat+0x1>
     e32:	a0 93 0c 28 	sts	0x280C, r26	; 0x80280c <tLastHeartbeat+0x2>
     e36:	b0 93 0d 28 	sts	0x280D, r27	; 0x80280d <tLastHeartbeat+0x3>
D:\MSDA\Multi-Sensor-Data-Aggregator\MSDA_Firmware_USB/MSDA_Firmware_USB.ino:100
  }
  if (now - tLastSample >= sampleIntervalMs) {
     e3a:	80 91 06 28 	lds	r24, 0x2806	; 0x802806 <__data_end>
     e3e:	90 91 07 28 	lds	r25, 0x2807	; 0x802807 <__data_end+0x1>
     e42:	a0 91 08 28 	lds	r26, 0x2808	; 0x802808 <__data_end+0x2>
     e46:	b0 91 09 28 	lds	r27, 0x2809	; 0x802809 <__data_end+0x3>
     e4a:	2d 85       	ldd	r18, Y+13	; 0x0d
     e4c:	3e 85       	ldd	r19, Y+14	; 0x0e
     e4e:	4f 85       	ldd	r20, Y+15	; 0x0f
     e50:	58 89       	ldd	r21, Y+16	; 0x10
     e52:	28 1b       	sub	r18, r24
     e54:	39 0b       	sbc	r19, r25
     e56:	4a 0b       	sbc	r20, r26
     e58:	5b 0b       	sbc	r21, r27
     e5a:	da 01       	movw	r26, r20
     e5c:	c9 01       	movw	r24, r18
     e5e:	80 3d       	cpi	r24, 0xD0	; 208
     e60:	97 40       	sbci	r25, 0x07	; 7
     e62:	a1 05       	cpc	r26, r1
     e64:	b1 05       	cpc	r27, r1
     e66:	08 f4       	brcc	.+2      	; 0xe6a <main+0x434>
     e68:	5c c0       	rjmp	.+184    	; 0xf22 <main+0x4ec>
digitalWrite():
     e6a:	60 e0       	ldi	r22, 0x00	; 0
     e6c:	84 e0       	ldi	r24, 0x04	; 4
C:\Users\Vedansh\AppData\Local\Arduino15\packages\MegaCoreX\hardware\megaavr\1.1.5\cores\coreX-corefiles/wiring.c:325
     e6e:	42 d9       	rcall	.-3452   	; 0xf4 <digitalWrite.part.2>
delayMicroseconds():
     e70:	8f e0       	ldi	r24, 0x0F	; 15
     e72:	90 e0       	ldi	r25, 0x00	; 0
     e74:	01 97       	sbiw	r24, 0x01	; 1
     e76:	f1 f7       	brne	.-4      	; 0xe74 <main+0x43e>
digitalWrite():
     e78:	61 e0       	ldi	r22, 0x01	; 1
     e7a:	84 e0       	ldi	r24, 0x04	; 4
     e7c:	3b d9       	rcall	.-3466   	; 0xf4 <digitalWrite.part.2>
delayMicroseconds():
     e7e:	c1 01       	movw	r24, r2
     e80:	01 97       	sbiw	r24, 0x01	; 1
     e82:	f1 f7       	brne	.-4      	; 0xe80 <main+0x44a>
digitalWrite():
     e84:	60 e0       	ldi	r22, 0x00	; 0
C:\Users\Vedansh\AppData\Local\Arduino15\packages\MegaCoreX\hardware\megaavr\1.1.5\cores\coreX-corefiles/wiring_pulse.c:46

  // convert the timeout from microseconds to a number of times through
  // the initial loop; it takes approximately 16 clock cycles per iteration
  unsigned long maxloops = microsecondsToClockCycles(timeout) / 12;

  unsigned long width = countPulseASM(portInputRegister(port), bit, stateMask, maxloops);
     e86:	84 e0       	ldi	r24, 0x04	; 4
     e88:	35 d9       	rcall	.-3478   	; 0xf4 <digitalWrite.part.2>
pulseIn():
     e8a:	00 e8       	ldi	r16, 0x80	; 128
     e8c:	18 e3       	ldi	r17, 0x38	; 56
     e8e:	21 e0       	ldi	r18, 0x01	; 1
     e90:	30 e0       	ldi	r19, 0x00	; 0
     e92:	44 e0       	ldi	r20, 0x04	; 4
     e94:	64 e0       	ldi	r22, 0x04	; 4
     e96:	88 e2       	ldi	r24, 0x28	; 40
C:\Users\Vedansh\AppData\Local\Arduino15\packages\MegaCoreX\hardware\megaavr\1.1.5\cores\coreX-corefiles/wiring_pulse.c:49

  // prevent clockCyclesToMicroseconds to return bogus values if countPulseASM timed out
  if (width)
     e98:	94 e0       	ldi	r25, 0x04	; 4
     e9a:	51 dd       	rcall	.-1374   	; 0x93e <countPulseASM>
     e9c:	6b 01       	movw	r12, r22
     e9e:	7c 01       	movw	r14, r24
C:\Users\Vedansh\AppData\Local\Arduino15\packages\MegaCoreX\hardware\megaavr\1.1.5\cores\coreX-corefiles/wiring_pulse.c:50
    return clockCyclesToMicroseconds(width * 16 + 16);
     ea0:	c1 14       	cp	r12, r1
     ea2:	d1 04       	cpc	r13, r1
     ea4:	e1 04       	cpc	r14, r1
     ea6:	f1 04       	cpc	r15, r1
C:\Users\Vedansh\AppData\Local\Arduino15\packages\MegaCoreX\hardware\megaavr\1.1.5\cores\coreX-corefiles/wiring.c:46
  return clockCyclesPerMicrosecondComp(F_CPU);
}

inline unsigned long clockCyclesToMicroseconds(unsigned long cycles)
{
  return (cycles / clockCyclesPerMicrosecond());
     ea8:	39 f0       	breq	.+14     	; 0xeb8 <main+0x482>
  digitalWrite(PIN_TRIG, LOW);  delayMicroseconds(5);
  digitalWrite(PIN_TRIG, HIGH); delayMicroseconds(15);
  digitalWrite(PIN_TRIG, LOW);

  unsigned long dur = pulseIn(PIN_ECHO, HIGH, 60000UL);
  float distCm = dur * 0.01715f;
     eaa:	4f ef       	ldi	r20, 0xFF	; 255
     eac:	c4 1a       	sub	r12, r20
     eae:	d4 0a       	sbc	r13, r20
     eb0:	e4 0a       	sbc	r14, r20
     eb2:	f4 0a       	sbc	r15, r20
clockCyclesToMicroseconds():
     eb4:	5f e0       	ldi	r21, 0x0F	; 15
     eb6:	f5 22       	and	r15, r21
sampleHCSR04():
     eb8:	c7 01       	movw	r24, r14
     eba:	b6 01       	movw	r22, r12
     ebc:	ae d0       	rcall	.+348    	; 0x101a <__floatunsisf>
     ebe:	28 e2       	ldi	r18, 0x28	; 40
D:\MSDA\Multi-Sensor-Data-Aggregator\MSDA_Firmware_USB/MSDA_Firmware_USB.ino:48

  Serial.print("<DATA|"); Serial.print(millis());
     ec0:	3e e7       	ldi	r19, 0x7E	; 126
     ec2:	4c e8       	ldi	r20, 0x8C	; 140
     ec4:	5c e3       	ldi	r21, 0x3C	; 60
     ec6:	0a d1       	rcall	.+532    	; 0x10dc <__mulsf3>
     ec8:	4b 01       	movw	r8, r22
C:\Users\Vedansh\AppData\Local\Arduino15\packages\MegaCoreX\hardware\megaavr\1.1.5\cores\coreX-corefiles\api/Print.cpp:119
size_t Print::print(unsigned long n, int base)
{
  if (base == 0)
    return write(n);
  else
    return printNumber(n, base);
     eca:	5c 01       	movw	r10, r24
     ecc:	8d e0       	ldi	r24, 0x0D	; 13
     ece:	9a e5       	ldi	r25, 0x5A	; 90
D:\MSDA\Multi-Sensor-Data-Aggregator\MSDA_Firmware_USB/MSDA_Firmware_USB.ino:49
  Serial.print("|HC_SR04,"); Serial.print(distCm, 2);
     ed0:	39 dc       	rcall	.-1934   	; 0x744 <Print::print(char const*) [clone .constprop.22]>
     ed2:	a3 d9       	rcall	.-3258   	; 0x21a <millis>
print():
     ed4:	4a e0       	ldi	r20, 0x0A	; 10
C:\Users\Vedansh\AppData\Local\Arduino15\packages\MegaCoreX\hardware\megaavr\1.1.5\cores\coreX-corefiles\api/Print.cpp:270

size_t Print::printFloat(double number, uint8_t digits)
{
  size_t n = 0;

  if (isnan(number)) return print("nan");
     ed6:	fa db       	rcall	.-2060   	; 0x6cc <Print::printNumber(unsigned long, unsigned char) [clone .constprop.21]>
sampleHCSR04():
     ed8:	84 e1       	ldi	r24, 0x14	; 20
     eda:	9a e5       	ldi	r25, 0x5A	; 90
     edc:	33 dc       	rcall	.-1946   	; 0x744 <Print::print(char const*) [clone .constprop.22]>
printFloat():
     ede:	a5 01       	movw	r20, r10
     ee0:	94 01       	movw	r18, r8
     ee2:	c5 01       	movw	r24, r10
     ee4:	b4 01       	movw	r22, r8
     ee6:	90 d2       	rcall	.+1312   	; 0x1408 <__unordsf2>
     ee8:	88 23       	and	r24, r24
     eea:	e9 f0       	breq	.+58     	; 0xf26 <main+0x4f0>
write():
D:\MSDA\Multi-Sensor-Data-Aggregator\MSDA_Firmware_USB/MSDA_Firmware_USB.ino:50
  Serial.print(",raw_us="); Serial.print(dur);
     eec:	8e e1       	ldi	r24, 0x1E	; 30
     eee:	9a e5       	ldi	r25, 0x5A	; 90
     ef0:	e1 db       	rcall	.-2110   	; 0x6b4 <Print::write(char const*) [clone .part.2] [clone .constprop.27]>
sampleHCSR04():
     ef2:	8c e2       	ldi	r24, 0x2C	; 44
C:\Users\Vedansh\AppData\Local\Arduino15\packages\MegaCoreX\hardware\megaavr\1.1.5\cores\coreX-corefiles\api/Print.cpp:119
size_t Print::print(unsigned long n, int base)
{
  if (base == 0)
    return write(n);
  else
    return printNumber(n, base);
     ef4:	9a e5       	ldi	r25, 0x5A	; 90
     ef6:	26 dc       	rcall	.-1972   	; 0x744 <Print::print(char const*) [clone .constprop.22]>
print():
     ef8:	4a e0       	ldi	r20, 0x0A	; 10
     efa:	c7 01       	movw	r24, r14
C:\Users\Vedansh\AppData\Local\Arduino15\packages\MegaCoreX\hardware\megaavr\1.1.5\cores\coreX-corefiles\api/Print.cpp:160
  return n;
}

size_t Print::println(char c)
{
  size_t n = print(c);
     efc:	b6 01       	movw	r22, r12
     efe:	e6 db       	rcall	.-2100   	; 0x6cc <Print::printNumber(unsigned long, unsigned char) [clone .constprop.21]>
println():
     f00:	8e e3       	ldi	r24, 0x3E	; 62
     f02:	78 db       	rcall	.-2320   	; 0x5f4 <Print::print(char) [clone .constprop.25]>
write():
     f04:	8d ea       	ldi	r24, 0xAD	; 173
     f06:	99 e5       	ldi	r25, 0x59	; 89
     f08:	d5 db       	rcall	.-2134   	; 0x6b4 <Print::write(char const*) [clone .part.2] [clone .constprop.27]>
loop():
D:\MSDA\Multi-Sensor-Data-Aggregator\MSDA_Firmware_USB/MSDA_Firmware_USB.ino:101

  if (now - tLastHeartbeat >= heartbeatMs) {
    sendHeartbeat(); tLastHeartbeat = now;
  }
  if (now - tLastSample >= sampleIntervalMs) {
    sampleHCSR04(); tLastSample = now;
     f0a:	8d 85       	ldd	r24, Y+13	; 0x0d
     f0c:	9e 85       	ldd	r25, Y+14	; 0x0e
     f0e:	af 85       	ldd	r26, Y+15	; 0x0f
     f10:	b8 89       	ldd	r27, Y+16	; 0x10
     f12:	80 93 06 28 	sts	0x2806, r24	; 0x802806 <__data_end>
     f16:	90 93 07 28 	sts	0x2807, r25	; 0x802807 <__data_end+0x1>
     f1a:	a0 93 08 28 	sts	0x2808, r26	; 0x802808 <__data_end+0x2>
     f1e:	b0 93 09 28 	sts	0x2809, r27	; 0x802809 <__data_end+0x3>
main():
C:\Users\Vedansh\AppData\Local\Arduino15\packages\MegaCoreX\hardware\megaavr\1.1.5\cores\coreX-corefiles/main.cpp:43
  setup();

  for (;;)
  {
    loop();
    if (serialEventRun) serialEventRun();
     f22:	8d db       	rcall	.-2278   	; 0x63e <serialEventRun()>
C:\Users\Vedansh\AppData\Local\Arduino15\packages\MegaCoreX\hardware\megaavr\1.1.5\cores\coreX-corefiles\api/Print.cpp:271
size_t Print::printFloat(double number, uint8_t digits)
{
  size_t n = 0;

  if (isnan(number)) return print("nan");
  if (isinf(number)) return print("inf");
     f24:	16 ce       	rjmp	.-980    	; 0xb52 <main+0x11c>
printFloat():
     f26:	2f ef       	ldi	r18, 0xFF	; 255
     f28:	3f ef       	ldi	r19, 0xFF	; 255
     f2a:	4f e7       	ldi	r20, 0x7F	; 127
     f2c:	5f e7       	ldi	r21, 0x7F	; 127
     f2e:	c5 01       	movw	r24, r10
     f30:	b4 01       	movw	r22, r8
     f32:	6a d2       	rcall	.+1236   	; 0x1408 <__unordsf2>
     f34:	81 11       	cpse	r24, r1
     f36:	0c c0       	rjmp	.+24     	; 0xf50 <main+0x51a>
     f38:	2f ef       	ldi	r18, 0xFF	; 255
     f3a:	3f ef       	ldi	r19, 0xFF	; 255
     f3c:	4f e7       	ldi	r20, 0x7F	; 127
     f3e:	5f e7       	ldi	r21, 0x7F	; 127
     f40:	c5 01       	movw	r24, r10
     f42:	b4 01       	movw	r22, r8
     f44:	66 d0       	rcall	.+204    	; 0x1012 <__cmpsf2>
     f46:	18 16       	cp	r1, r24
     f48:	1c f4       	brge	.+6      	; 0xf50 <main+0x51a>
write():
C:\Users\Vedansh\AppData\Local\Arduino15\packages\MegaCoreX\hardware\megaavr\1.1.5\cores\coreX-corefiles\api/Print.cpp:272
  if (number > 4294967040.0) return print("ovf");  // constant determined empirically
     f4a:	82 e2       	ldi	r24, 0x22	; 34
     f4c:	9a e5       	ldi	r25, 0x5A	; 90
     f4e:	d0 cf       	rjmp	.-96     	; 0xef0 <main+0x4ba>
printFloat():
     f50:	2f ef       	ldi	r18, 0xFF	; 255
     f52:	3f ef       	ldi	r19, 0xFF	; 255
     f54:	4f e7       	ldi	r20, 0x7F	; 127
     f56:	5f e4       	ldi	r21, 0x4F	; 79
     f58:	c5 01       	movw	r24, r10
     f5a:	b4 01       	movw	r22, r8
     f5c:	51 d2       	rcall	.+1186   	; 0x1400 <__gesf2>
C:\Users\Vedansh\AppData\Local\Arduino15\packages\MegaCoreX\hardware\megaavr\1.1.5\cores\coreX-corefiles\api/Print.cpp:273
  if (number < -4294967040.0) return print("ovf"); // constant determined empirically
     f5e:	18 16       	cp	r1, r24
     f60:	1c f4       	brge	.+6      	; 0xf68 <main+0x532>
write():
     f62:	86 e2       	ldi	r24, 0x26	; 38
     f64:	9a e5       	ldi	r25, 0x5A	; 90
     f66:	c4 cf       	rjmp	.-120    	; 0xef0 <main+0x4ba>
printFloat():
     f68:	2f ef       	ldi	r18, 0xFF	; 255
     f6a:	3f ef       	ldi	r19, 0xFF	; 255
     f6c:	4f e7       	ldi	r20, 0x7F	; 127
C:\Users\Vedansh\AppData\Local\Arduino15\packages\MegaCoreX\hardware\megaavr\1.1.5\cores\coreX-corefiles\api/Print.cpp:287
  // Round correctly so that print(1.999, 2) prints as "2.00"
  double rounding = 0.5;
  for (uint8_t i = 0; i < digits; ++i)
    rounding /= 10.0;

  number += rounding;
     f6e:	5f ec       	ldi	r21, 0xCF	; 207
     f70:	c5 01       	movw	r24, r10
     f72:	b4 01       	movw	r22, r8
     f74:	4e d0       	rcall	.+156    	; 0x1012 <__cmpsf2>
     f76:	87 fd       	sbrc	r24, 7
     f78:	f4 cf       	rjmp	.-24     	; 0xf62 <main+0x52c>
     f7a:	2a e0       	ldi	r18, 0x0A	; 10
C:\Users\Vedansh\AppData\Local\Arduino15\packages\MegaCoreX\hardware\megaavr\1.1.5\cores\coreX-corefiles\api/Print.cpp:290

  // Extract the integer part of the number and print it
  unsigned long int_part = (unsigned long)number;
     f7c:	37 ed       	ldi	r19, 0xD7	; 215
     f7e:	43 ea       	ldi	r20, 0xA3	; 163
     f80:	5b e3       	ldi	r21, 0x3B	; 59
     f82:	c5 01       	movw	r24, r10
C:\Users\Vedansh\AppData\Local\Arduino15\packages\MegaCoreX\hardware\megaavr\1.1.5\cores\coreX-corefiles\api/Print.cpp:291
  double remainder = number - (double)int_part;
     f84:	b4 01       	movw	r22, r8
     f86:	ac d1       	rcall	.+856    	; 0x12e0 <__addsf3>
     f88:	2b 01       	movw	r4, r22
     f8a:	3c 01       	movw	r6, r24
     f8c:	0d d2       	rcall	.+1050   	; 0x13a8 <__fixunssfsi>
     f8e:	4b 01       	movw	r8, r22
     f90:	5c 01       	movw	r10, r24
     f92:	43 d0       	rcall	.+134    	; 0x101a <__floatunsisf>
     f94:	9b 01       	movw	r18, r22
     f96:	ac 01       	movw	r20, r24
C:\Users\Vedansh\AppData\Local\Arduino15\packages\MegaCoreX\hardware\megaavr\1.1.5\cores\coreX-corefiles\api/Print.cpp:119
size_t Print::print(unsigned long n, int base)
{
  if (base == 0)
    return write(n);
  else
    return printNumber(n, base);
     f98:	c3 01       	movw	r24, r6
     f9a:	b2 01       	movw	r22, r4
     f9c:	a0 d1       	rcall	.+832    	; 0x12de <__subsf3>
     f9e:	2b 01       	movw	r4, r22
     fa0:	3c 01       	movw	r6, r24
print():
     fa2:	4a e0       	ldi	r20, 0x0A	; 10
     fa4:	c5 01       	movw	r24, r10
     fa6:	b4 01       	movw	r22, r8
     fa8:	91 db       	rcall	.-2270   	; 0x6cc <Print::printNumber(unsigned long, unsigned char) [clone .constprop.21]>
write():
C:\Users\Vedansh\AppData\Local\Arduino15\packages\MegaCoreX\hardware\megaavr\1.1.5\cores\coreX-corefiles\api/Print.cpp:303
  }

  // Extract digits from the remainder one at a time
  while (digits-- > 0)
  {
    remainder *= 10.0;
     faa:	8a e2       	ldi	r24, 0x2A	; 42
     fac:	9a e5       	ldi	r25, 0x5A	; 90
     fae:	82 db       	rcall	.-2300   	; 0x6b4 <Print::write(char const*) [clone .part.2] [clone .constprop.27]>
printFloat():
     fb0:	20 e0       	ldi	r18, 0x00	; 0
     fb2:	30 e0       	ldi	r19, 0x00	; 0
     fb4:	40 e2       	ldi	r20, 0x20	; 32
     fb6:	51 e4       	ldi	r21, 0x41	; 65
     fb8:	c3 01       	movw	r24, r6
     fba:	b2 01       	movw	r22, r4
     fbc:	8f d0       	rcall	.+286    	; 0x10dc <__mulsf3>
C:\Users\Vedansh\AppData\Local\Arduino15\packages\MegaCoreX\hardware\megaavr\1.1.5\cores\coreX-corefiles\api/Print.cpp:304
    unsigned int toPrint = (unsigned int)remainder;
     fbe:	2b 01       	movw	r4, r22
     fc0:	3c 01       	movw	r6, r24
C:\Users\Vedansh\AppData\Local\Arduino15\packages\MegaCoreX\hardware\megaavr\1.1.5\cores\coreX-corefiles\api/Print.cpp:89
  return print((long)n, base);
}

size_t Print::print(unsigned int n, int base)
{
  return print((unsigned long)n, base);
     fc2:	f2 d1       	rcall	.+996    	; 0x13a8 <__fixunssfsi>
print():
     fc4:	4b 01       	movw	r8, r22
     fc6:	b1 2c       	mov	r11, r1
C:\Users\Vedansh\AppData\Local\Arduino15\packages\MegaCoreX\hardware\megaavr\1.1.5\cores\coreX-corefiles\api/Print.cpp:119
size_t Print::print(unsigned long n, int base)
{
  if (base == 0)
    return write(n);
  else
    return printNumber(n, base);
     fc8:	a1 2c       	mov	r10, r1
     fca:	4a e0       	ldi	r20, 0x0A	; 10
     fcc:	c5 01       	movw	r24, r10
     fce:	b4 01       	movw	r22, r8
     fd0:	7d db       	rcall	.-2310   	; 0x6cc <Print::printNumber(unsigned long, unsigned char) [clone .constprop.21]>
printFloat():
C:\Users\Vedansh\AppData\Local\Arduino15\packages\MegaCoreX\hardware\megaavr\1.1.5\cores\coreX-corefiles\api/Print.cpp:306
  while (digits-- > 0)
  {
    remainder *= 10.0;
    unsigned int toPrint = (unsigned int)remainder;
    n += print(toPrint);
    remainder -= toPrint;
     fd2:	c5 01       	movw	r24, r10
     fd4:	b4 01       	movw	r22, r8
     fd6:	21 d0       	rcall	.+66     	; 0x101a <__floatunsisf>
     fd8:	9b 01       	movw	r18, r22
     fda:	ac 01       	movw	r20, r24
     fdc:	c3 01       	movw	r24, r6
     fde:	b2 01       	movw	r22, r4
     fe0:	7e d1       	rcall	.+764    	; 0x12de <__subsf3>
     fe2:	20 e0       	ldi	r18, 0x00	; 0
     fe4:	30 e0       	ldi	r19, 0x00	; 0
C:\Users\Vedansh\AppData\Local\Arduino15\packages\MegaCoreX\hardware\megaavr\1.1.5\cores\coreX-corefiles\api/Print.cpp:303
  }

  // Extract digits from the remainder one at a time
  while (digits-- > 0)
  {
    remainder *= 10.0;
     fe6:	40 e2       	ldi	r20, 0x20	; 32
     fe8:	51 e4       	ldi	r21, 0x41	; 65
     fea:	78 d0       	rcall	.+240    	; 0x10dc <__mulsf3>
     fec:	dd d1       	rcall	.+954    	; 0x13a8 <__fixunssfsi>
print():
     fee:	90 e0       	ldi	r25, 0x00	; 0
     ff0:	80 e0       	ldi	r24, 0x00	; 0
C:\Users\Vedansh\AppData\Local\Arduino15\packages\MegaCoreX\hardware\megaavr\1.1.5\cores\coreX-corefiles\api/Print.cpp:304
    unsigned int toPrint = (unsigned int)remainder;
     ff2:	4a e0       	ldi	r20, 0x0A	; 10
     ff4:	6b db       	rcall	.-2346   	; 0x6cc <Print::printNumber(unsigned long, unsigned char) [clone .constprop.21]>
C:\Users\Vedansh\AppData\Local\Arduino15\packages\MegaCoreX\hardware\megaavr\1.1.5\cores\coreX-corefiles\api/Print.cpp:89
  return print((long)n, base);
}

size_t Print::print(unsigned int n, int base)
{
  return print((unsigned long)n, base);
     ff6:	7d cf       	rjmp	.-262    	; 0xef2 <main+0x4bc>

00000ff8 <_GLOBAL__sub_D_sampleIntervalMs>:
__base_dtor ():
     ff8:	80 91 af 28 	lds	r24, 0x28AF	; 0x8028af <cmdBuf>
C:\Users\Vedansh\AppData\Local\Arduino15\packages\MegaCoreX\hardware\megaavr\1.1.5\cores\coreX-corefiles\api/Print.cpp:119
size_t Print::print(unsigned long n, int base)
{
  if (base == 0)
    return write(n);
  else
    return printNumber(n, base);
     ffc:	90 91 b0 28 	lds	r25, 0x28B0	; 0x8028b0 <cmdBuf+0x1>
    1000:	ed c2       	rjmp	.+1498   	; 0x15dc <free>

00001002 <isspace>:
isspace():
    1002:	91 11       	cpse	r25, r1
    1004:	ce c0       	rjmp	.+412    	; 0x11a2 <__ctype_isfalse>
    1006:	80 32       	cpi	r24, 0x20	; 32
    1008:	19 f0       	breq	.+6      	; 0x1010 <isspace+0xe>
    100a:	89 50       	subi	r24, 0x09	; 9
    100c:	85 50       	subi	r24, 0x05	; 5
    100e:	d0 f7       	brcc	.-12     	; 0x1004 <isspace+0x2>
    1010:	08 95       	ret

00001012 <__cmpsf2>:
__cmpsf2():
    1012:	40 d0       	rcall	.+128    	; 0x1094 <__fp_cmp>
    1014:	08 f4       	brcc	.+2      	; 0x1018 <__cmpsf2+0x6>
    1016:	81 e0       	ldi	r24, 0x01	; 1
    1018:	08 95       	ret

0000101a <__floatunsisf>:
__floatunsisf():
    101a:	e8 94       	clt
    101c:	09 c0       	rjmp	.+18     	; 0x1030 <__floatsisf+0x12>

0000101e <__floatsisf>:
    101e:	97 fb       	bst	r25, 7
    1020:	3e f4       	brtc	.+14     	; 0x1030 <__floatsisf+0x12>
    1022:	90 95       	com	r25
    1024:	80 95       	com	r24
    1026:	70 95       	com	r23
    1028:	61 95       	neg	r22
    102a:	7f 4f       	sbci	r23, 0xFF	; 255
    102c:	8f 4f       	sbci	r24, 0xFF	; 255
    102e:	9f 4f       	sbci	r25, 0xFF	; 255
    1030:	99 23       	and	r25, r25
    1032:	a9 f0       	breq	.+42     	; 0x105e <__floatsisf+0x40>
    1034:	f9 2f       	mov	r31, r25
    1036:	96 e9       	ldi	r25, 0x96	; 150
    1038:	bb 27       	eor	r27, r27
    103a:	93 95       	inc	r25
    103c:	f6 95       	lsr	r31
    103e:	87 95       	ror	r24
    1040:	77 95       	ror	r23
    1042:	67 95       	ror	r22
    1044:	b7 95       	ror	r27
    1046:	f1 11       	cpse	r31, r1
    1048:	f8 cf       	rjmp	.-16     	; 0x103a <__floatsisf+0x1c>
    104a:	fa f4       	brpl	.+62     	; 0x108a <__floatsisf+0x6c>
    104c:	bb 0f       	add	r27, r27
    104e:	11 f4       	brne	.+4      	; 0x1054 <__floatsisf+0x36>
    1050:	60 ff       	sbrs	r22, 0
    1052:	1b c0       	rjmp	.+54     	; 0x108a <__floatsisf+0x6c>
    1054:	6f 5f       	subi	r22, 0xFF	; 255
    1056:	7f 4f       	sbci	r23, 0xFF	; 255
    1058:	8f 4f       	sbci	r24, 0xFF	; 255
    105a:	9f 4f       	sbci	r25, 0xFF	; 255
    105c:	16 c0       	rjmp	.+44     	; 0x108a <__floatsisf+0x6c>
    105e:	88 23       	and	r24, r24
    1060:	11 f0       	breq	.+4      	; 0x1066 <__floatsisf+0x48>
    1062:	96 e9       	ldi	r25, 0x96	; 150
    1064:	11 c0       	rjmp	.+34     	; 0x1088 <__floatsisf+0x6a>
    1066:	77 23       	and	r23, r23
    1068:	21 f0       	breq	.+8      	; 0x1072 <__floatsisf+0x54>
    106a:	9e e8       	ldi	r25, 0x8E	; 142
    106c:	87 2f       	mov	r24, r23
    106e:	76 2f       	mov	r23, r22
    1070:	05 c0       	rjmp	.+10     	; 0x107c <__floatsisf+0x5e>
    1072:	66 23       	and	r22, r22
    1074:	71 f0       	breq	.+28     	; 0x1092 <__floatsisf+0x74>
    1076:	96 e8       	ldi	r25, 0x86	; 134
    1078:	86 2f       	mov	r24, r22
    107a:	70 e0       	ldi	r23, 0x00	; 0
    107c:	60 e0       	ldi	r22, 0x00	; 0
    107e:	2a f0       	brmi	.+10     	; 0x108a <__floatsisf+0x6c>
    1080:	9a 95       	dec	r25
    1082:	66 0f       	add	r22, r22
    1084:	77 1f       	adc	r23, r23
    1086:	88 1f       	adc	r24, r24
    1088:	da f7       	brpl	.-10     	; 0x1080 <__floatsisf+0x62>
    108a:	88 0f       	add	r24, r24
    108c:	96 95       	lsr	r25
    108e:	87 95       	ror	r24
    1090:	97 f9       	bld	r25, 7
    1092:	08 95       	ret

00001094 <__fp_cmp>:
__fp_cmp():
    1094:	99 0f       	add	r25, r25
    1096:	00 08       	sbc	r0, r0
    1098:	55 0f       	add	r21, r21
    109a:	aa 0b       	sbc	r26, r26
    109c:	e0 e8       	ldi	r30, 0x80	; 128
    109e:	fe ef       	ldi	r31, 0xFE	; 254
    10a0:	16 16       	cp	r1, r22
    10a2:	17 06       	cpc	r1, r23
    10a4:	e8 07       	cpc	r30, r24
    10a6:	f9 07       	cpc	r31, r25
    10a8:	c0 f0       	brcs	.+48     	; 0x10da <__fp_cmp+0x46>
    10aa:	12 16       	cp	r1, r18
    10ac:	13 06       	cpc	r1, r19
    10ae:	e4 07       	cpc	r30, r20
    10b0:	f5 07       	cpc	r31, r21
    10b2:	98 f0       	brcs	.+38     	; 0x10da <__fp_cmp+0x46>
    10b4:	62 1b       	sub	r22, r18
    10b6:	73 0b       	sbc	r23, r19
    10b8:	84 0b       	sbc	r24, r20
    10ba:	95 0b       	sbc	r25, r21
    10bc:	39 f4       	brne	.+14     	; 0x10cc <__fp_cmp+0x38>
    10be:	0a 26       	eor	r0, r26
    10c0:	61 f0       	breq	.+24     	; 0x10da <__fp_cmp+0x46>
    10c2:	23 2b       	or	r18, r19
    10c4:	24 2b       	or	r18, r20
    10c6:	25 2b       	or	r18, r21
    10c8:	21 f4       	brne	.+8      	; 0x10d2 <__fp_cmp+0x3e>
    10ca:	08 95       	ret
    10cc:	0a 26       	eor	r0, r26
    10ce:	09 f4       	brne	.+2      	; 0x10d2 <__fp_cmp+0x3e>
    10d0:	a1 40       	sbci	r26, 0x01	; 1
    10d2:	a6 95       	lsr	r26
    10d4:	8f ef       	ldi	r24, 0xFF	; 255
    10d6:	81 1d       	adc	r24, r1
    10d8:	81 1d       	adc	r24, r1
    10da:	08 95       	ret

000010dc <__mulsf3>:
__mulsf3():
    10dc:	0b d0       	rcall	.+22     	; 0x10f4 <__mulsf3x>
    10de:	7b c0       	rjmp	.+246    	; 0x11d6 <__fp_round>
    10e0:	6c d0       	rcall	.+216    	; 0x11ba <__fp_pscA>
    10e2:	28 f0       	brcs	.+10     	; 0x10ee <__mulsf3+0x12>
    10e4:	71 d0       	rcall	.+226    	; 0x11c8 <__fp_pscB>
    10e6:	18 f0       	brcs	.+6      	; 0x10ee <__mulsf3+0x12>
    10e8:	95 23       	and	r25, r21
    10ea:	09 f0       	breq	.+2      	; 0x10ee <__mulsf3+0x12>
    10ec:	5d c0       	rjmp	.+186    	; 0x11a8 <__fp_inf>
    10ee:	62 c0       	rjmp	.+196    	; 0x11b4 <__fp_nan>
    10f0:	11 24       	eor	r1, r1
    10f2:	a5 c0       	rjmp	.+330    	; 0x123e <__fp_szero>

000010f4 <__mulsf3x>:
__mulsf3x():
    10f4:	81 d0       	rcall	.+258    	; 0x11f8 <__fp_split3>
    10f6:	a0 f3       	brcs	.-24     	; 0x10e0 <__mulsf3+0x4>

000010f8 <__mulsf3_pse>:
    10f8:	95 9f       	mul	r25, r21
    10fa:	d1 f3       	breq	.-12     	; 0x10f0 <__mulsf3+0x14>
    10fc:	95 0f       	add	r25, r21
    10fe:	50 e0       	ldi	r21, 0x00	; 0
    1100:	55 1f       	adc	r21, r21
    1102:	62 9f       	mul	r22, r18
    1104:	f0 01       	movw	r30, r0
    1106:	72 9f       	mul	r23, r18
    1108:	bb 27       	eor	r27, r27
    110a:	f0 0d       	add	r31, r0
    110c:	b1 1d       	adc	r27, r1
    110e:	63 9f       	mul	r22, r19
    1110:	aa 27       	eor	r26, r26
    1112:	f0 0d       	add	r31, r0
    1114:	b1 1d       	adc	r27, r1
    1116:	aa 1f       	adc	r26, r26
    1118:	64 9f       	mul	r22, r20
    111a:	66 27       	eor	r22, r22
    111c:	b0 0d       	add	r27, r0
    111e:	a1 1d       	adc	r26, r1
    1120:	66 1f       	adc	r22, r22
    1122:	82 9f       	mul	r24, r18
    1124:	22 27       	eor	r18, r18
    1126:	b0 0d       	add	r27, r0
    1128:	a1 1d       	adc	r26, r1
    112a:	62 1f       	adc	r22, r18
    112c:	73 9f       	mul	r23, r19
    112e:	b0 0d       	add	r27, r0
    1130:	a1 1d       	adc	r26, r1
    1132:	62 1f       	adc	r22, r18
    1134:	83 9f       	mul	r24, r19
    1136:	a0 0d       	add	r26, r0
    1138:	61 1d       	adc	r22, r1
    113a:	22 1f       	adc	r18, r18
    113c:	74 9f       	mul	r23, r20
    113e:	33 27       	eor	r19, r19
    1140:	a0 0d       	add	r26, r0
    1142:	61 1d       	adc	r22, r1
    1144:	23 1f       	adc	r18, r19
    1146:	84 9f       	mul	r24, r20
    1148:	60 0d       	add	r22, r0
    114a:	21 1d       	adc	r18, r1
    114c:	82 2f       	mov	r24, r18
    114e:	76 2f       	mov	r23, r22
    1150:	6a 2f       	mov	r22, r26
    1152:	11 24       	eor	r1, r1
    1154:	9f 57       	subi	r25, 0x7F	; 127
    1156:	50 40       	sbci	r21, 0x00	; 0
    1158:	8a f0       	brmi	.+34     	; 0x117c <__mulsf3_pse+0x84>
    115a:	e1 f0       	breq	.+56     	; 0x1194 <__mulsf3_pse+0x9c>
    115c:	88 23       	and	r24, r24
    115e:	4a f0       	brmi	.+18     	; 0x1172 <__mulsf3_pse+0x7a>
    1160:	ee 0f       	add	r30, r30
    1162:	ff 1f       	adc	r31, r31
    1164:	bb 1f       	adc	r27, r27
    1166:	66 1f       	adc	r22, r22
    1168:	77 1f       	adc	r23, r23
    116a:	88 1f       	adc	r24, r24
    116c:	91 50       	subi	r25, 0x01	; 1
    116e:	50 40       	sbci	r21, 0x00	; 0
    1170:	a9 f7       	brne	.-22     	; 0x115c <__mulsf3_pse+0x64>
    1172:	9e 3f       	cpi	r25, 0xFE	; 254
    1174:	51 05       	cpc	r21, r1
    1176:	70 f0       	brcs	.+28     	; 0x1194 <__mulsf3_pse+0x9c>
    1178:	17 c0       	rjmp	.+46     	; 0x11a8 <__fp_inf>
    117a:	61 c0       	rjmp	.+194    	; 0x123e <__fp_szero>
    117c:	5f 3f       	cpi	r21, 0xFF	; 255
    117e:	ec f3       	brlt	.-6      	; 0x117a <__mulsf3_pse+0x82>
    1180:	98 3e       	cpi	r25, 0xE8	; 232
    1182:	dc f3       	brlt	.-10     	; 0x117a <__mulsf3_pse+0x82>
    1184:	86 95       	lsr	r24
    1186:	77 95       	ror	r23
    1188:	67 95       	ror	r22
    118a:	b7 95       	ror	r27
    118c:	f7 95       	ror	r31
    118e:	e7 95       	ror	r30
    1190:	9f 5f       	subi	r25, 0xFF	; 255
    1192:	c1 f7       	brne	.-16     	; 0x1184 <__mulsf3_pse+0x8c>
    1194:	fe 2b       	or	r31, r30
    1196:	88 0f       	add	r24, r24
    1198:	91 1d       	adc	r25, r1
    119a:	96 95       	lsr	r25
    119c:	87 95       	ror	r24
    119e:	97 f9       	bld	r25, 7
    11a0:	08 95       	ret

000011a2 <__ctype_isfalse>:
    11a2:	99 27       	eor	r25, r25
    11a4:	88 27       	eor	r24, r24

000011a6 <__ctype_istrue>:
    11a6:	08 95       	ret

000011a8 <__fp_inf>:
    11a8:	97 f9       	bld	r25, 7
    11aa:	9f 67       	ori	r25, 0x7F	; 127
    11ac:	80 e8       	ldi	r24, 0x80	; 128
    11ae:	70 e0       	ldi	r23, 0x00	; 0
    11b0:	60 e0       	ldi	r22, 0x00	; 0
    11b2:	08 95       	ret

000011b4 <__fp_nan>:
    11b4:	9f ef       	ldi	r25, 0xFF	; 255
    11b6:	80 ec       	ldi	r24, 0xC0	; 192
    11b8:	08 95       	ret

000011ba <__fp_pscA>:
    11ba:	00 24       	eor	r0, r0
    11bc:	0a 94       	dec	r0
    11be:	16 16       	cp	r1, r22
    11c0:	17 06       	cpc	r1, r23
    11c2:	18 06       	cpc	r1, r24
    11c4:	09 06       	cpc	r0, r25
__fp_pscA():
    11c6:	08 95       	ret

000011c8 <__fp_pscB>:
__fp_pscB():
    11c8:	00 24       	eor	r0, r0
    11ca:	0a 94       	dec	r0
    11cc:	12 16       	cp	r1, r18
    11ce:	13 06       	cpc	r1, r19
    11d0:	14 06       	cpc	r1, r20
    11d2:	05 06       	cpc	r0, r21
    11d4:	08 95       	ret

000011d6 <__fp_round>:
__fp_round():
    11d6:	09 2e       	mov	r0, r25
    11d8:	03 94       	inc	r0
    11da:	00 0c       	add	r0, r0
    11dc:	11 f4       	brne	.+4      	; 0x11e2 <__fp_round+0xc>
    11de:	88 23       	and	r24, r24
    11e0:	52 f0       	brmi	.+20     	; 0x11f6 <__fp_round+0x20>
    11e2:	bb 0f       	add	r27, r27
    11e4:	40 f4       	brcc	.+16     	; 0x11f6 <__fp_round+0x20>
    11e6:	bf 2b       	or	r27, r31
    11e8:	11 f4       	brne	.+4      	; 0x11ee <__fp_round+0x18>
    11ea:	60 ff       	sbrs	r22, 0
    11ec:	04 c0       	rjmp	.+8      	; 0x11f6 <__fp_round+0x20>
    11ee:	6f 5f       	subi	r22, 0xFF	; 255
    11f0:	7f 4f       	sbci	r23, 0xFF	; 255
    11f2:	8f 4f       	sbci	r24, 0xFF	; 255
    11f4:	9f 4f       	sbci	r25, 0xFF	; 255
    11f6:	08 95       	ret

000011f8 <__fp_split3>:
__fp_split3():
    11f8:	57 fd       	sbrc	r21, 7
    11fa:	90 58       	subi	r25, 0x80	; 128
    11fc:	44 0f       	add	r20, r20
    11fe:	55 1f       	adc	r21, r21
    1200:	59 f0       	breq	.+22     	; 0x1218 <__fp_splitA+0x10>
    1202:	5f 3f       	cpi	r21, 0xFF	; 255
    1204:	71 f0       	breq	.+28     	; 0x1222 <__fp_splitA+0x1a>
    1206:	47 95       	ror	r20

00001208 <__fp_splitA>:
    1208:	88 0f       	add	r24, r24
    120a:	97 fb       	bst	r25, 7
    120c:	99 1f       	adc	r25, r25
    120e:	61 f0       	breq	.+24     	; 0x1228 <__fp_splitA+0x20>
    1210:	9f 3f       	cpi	r25, 0xFF	; 255
    1212:	79 f0       	breq	.+30     	; 0x1232 <__fp_splitA+0x2a>
    1214:	87 95       	ror	r24
    1216:	08 95       	ret
    1218:	12 16       	cp	r1, r18
    121a:	13 06       	cpc	r1, r19
    121c:	14 06       	cpc	r1, r20
    121e:	55 1f       	adc	r21, r21
    1220:	f2 cf       	rjmp	.-28     	; 0x1206 <__fp_split3+0xe>
    1222:	46 95       	lsr	r20
    1224:	f1 df       	rcall	.-30     	; 0x1208 <__fp_splitA>
    1226:	08 c0       	rjmp	.+16     	; 0x1238 <__fp_splitA+0x30>
    1228:	16 16       	cp	r1, r22
    122a:	17 06       	cpc	r1, r23
    122c:	18 06       	cpc	r1, r24
    122e:	99 1f       	adc	r25, r25
    1230:	f1 cf       	rjmp	.-30     	; 0x1214 <__fp_splitA+0xc>
    1232:	86 95       	lsr	r24
    1234:	71 05       	cpc	r23, r1
    1236:	61 05       	cpc	r22, r1
    1238:	08 94       	sec
    123a:	08 95       	ret

0000123c <__fp_zero>:
__fp_zero():
    123c:	e8 94       	clt

0000123e <__fp_szero>:
    123e:	bb 27       	eor	r27, r27
    1240:	66 27       	eor	r22, r22
    1242:	77 27       	eor	r23, r23
    1244:	cb 01       	movw	r24, r22
    1246:	97 f9       	bld	r25, 7
    1248:	08 95       	ret

0000124a <__muluhisi3>:
__muluhisi3():
/home/jenkins-mingw32/workspace/avr-gcc-staging/label/Ubuntu14.04x64-mingw32/gcc-build/avr/avrxmega3/libgcc/../../../../gcc/libgcc/config/avr/lib1funcs.S:626
    124a:	3a d0       	rcall	.+116    	; 0x12c0 <__umulhisi3>
/home/jenkins-mingw32/workspace/avr-gcc-staging/label/Ubuntu14.04x64-mingw32/gcc-build/avr/avrxmega3/libgcc/../../../../gcc/libgcc/config/avr/lib1funcs.S:627
    124c:	a5 9f       	mul	r26, r21
/home/jenkins-mingw32/workspace/avr-gcc-staging/label/Ubuntu14.04x64-mingw32/gcc-build/avr/avrxmega3/libgcc/../../../../gcc/libgcc/config/avr/lib1funcs.S:628
    124e:	90 0d       	add	r25, r0
/home/jenkins-mingw32/workspace/avr-gcc-staging/label/Ubuntu14.04x64-mingw32/gcc-build/avr/avrxmega3/libgcc/../../../../gcc/libgcc/config/avr/lib1funcs.S:629
    1250:	b4 9f       	mul	r27, r20
/home/jenkins-mingw32/workspace/avr-gcc-staging/label/Ubuntu14.04x64-mingw32/gcc-build/avr/avrxmega3/libgcc/../../../../gcc/libgcc/config/avr/lib1funcs.S:630
    1252:	90 0d       	add	r25, r0
/home/jenkins-mingw32/workspace/avr-gcc-staging/label/Ubuntu14.04x64-mingw32/gcc-build/avr/avrxmega3/libgcc/../../../../gcc/libgcc/config/avr/lib1funcs.S:631
    1254:	a4 9f       	mul	r26, r20
/home/jenkins-mingw32/workspace/avr-gcc-staging/label/Ubuntu14.04x64-mingw32/gcc-build/avr/avrxmega3/libgcc/../../../../gcc/libgcc/config/avr/lib1funcs.S:632
    1256:	80 0d       	add	r24, r0
/home/jenkins-mingw32/workspace/avr-gcc-staging/label/Ubuntu14.04x64-mingw32/gcc-build/avr/avrxmega3/libgcc/../../../../gcc/libgcc/config/avr/lib1funcs.S:633
    1258:	91 1d       	adc	r25, r1
/home/jenkins-mingw32/workspace/avr-gcc-staging/label/Ubuntu14.04x64-mingw32/gcc-build/avr/avrxmega3/libgcc/../../../../gcc/libgcc/config/avr/lib1funcs.S:634
    125a:	11 24       	eor	r1, r1
/home/jenkins-mingw32/workspace/avr-gcc-staging/label/Ubuntu14.04x64-mingw32/gcc-build/avr/avrxmega3/libgcc/../../../../gcc/libgcc/config/avr/lib1funcs.S:635
    125c:	08 95       	ret

0000125e <__prologue_saves__>:
__prologue_saves__():
/home/jenkins-mingw32/workspace/avr-gcc-staging/label/Ubuntu14.04x64-mingw32/gcc-build/avr/avrxmega3/libgcc/../../../../gcc/libgcc/config/avr/lib1funcs.S:2169
    125e:	2f 92       	push	r2
/home/jenkins-mingw32/workspace/avr-gcc-staging/label/Ubuntu14.04x64-mingw32/gcc-build/avr/avrxmega3/libgcc/../../../../gcc/libgcc/config/avr/lib1funcs.S:2170
    1260:	3f 92       	push	r3
/home/jenkins-mingw32/workspace/avr-gcc-staging/label/Ubuntu14.04x64-mingw32/gcc-build/avr/avrxmega3/libgcc/../../../../gcc/libgcc/config/avr/lib1funcs.S:2171
    1262:	4f 92       	push	r4
/home/jenkins-mingw32/workspace/avr-gcc-staging/label/Ubuntu14.04x64-mingw32/gcc-build/avr/avrxmega3/libgcc/../../../../gcc/libgcc/config/avr/lib1funcs.S:2172
    1264:	5f 92       	push	r5
/home/jenkins-mingw32/workspace/avr-gcc-staging/label/Ubuntu14.04x64-mingw32/gcc-build/avr/avrxmega3/libgcc/../../../../gcc/libgcc/config/avr/lib1funcs.S:2173
    1266:	6f 92       	push	r6
/home/jenkins-mingw32/workspace/avr-gcc-staging/label/Ubuntu14.04x64-mingw32/gcc-build/avr/avrxmega3/libgcc/../../../../gcc/libgcc/config/avr/lib1funcs.S:2174
    1268:	7f 92       	push	r7
/home/jenkins-mingw32/workspace/avr-gcc-staging/label/Ubuntu14.04x64-mingw32/gcc-build/avr/avrxmega3/libgcc/../../../../gcc/libgcc/config/avr/lib1funcs.S:2175
    126a:	8f 92       	push	r8
/home/jenkins-mingw32/workspace/avr-gcc-staging/label/Ubuntu14.04x64-mingw32/gcc-build/avr/avrxmega3/libgcc/../../../../gcc/libgcc/config/avr/lib1funcs.S:2176
    126c:	9f 92       	push	r9
/home/jenkins-mingw32/workspace/avr-gcc-staging/label/Ubuntu14.04x64-mingw32/gcc-build/avr/avrxmega3/libgcc/../../../../gcc/libgcc/config/avr/lib1funcs.S:2177
    126e:	af 92       	push	r10
/home/jenkins-mingw32/workspace/avr-gcc-staging/label/Ubuntu14.04x64-mingw32/gcc-build/avr/avrxmega3/libgcc/../../../../gcc/libgcc/config/avr/lib1funcs.S:2178
    1270:	bf 92       	push	r11
/home/jenkins-mingw32/workspace/avr-gcc-staging/label/Ubuntu14.04x64-mingw32/gcc-build/avr/avrxmega3/libgcc/../../../../gcc/libgcc/config/avr/lib1funcs.S:2179
    1272:	cf 92       	push	r12
/home/jenkins-mingw32/workspace/avr-gcc-staging/label/Ubuntu14.04x64-mingw32/gcc-build/avr/avrxmega3/libgcc/../../../../gcc/libgcc/config/avr/lib1funcs.S:2180
    1274:	df 92       	push	r13
/home/jenkins-mingw32/workspace/avr-gcc-staging/label/Ubuntu14.04x64-mingw32/gcc-build/avr/avrxmega3/libgcc/../../../../gcc/libgcc/config/avr/lib1funcs.S:2181
    1276:	ef 92       	push	r14
/home/jenkins-mingw32/workspace/avr-gcc-staging/label/Ubuntu14.04x64-mingw32/gcc-build/avr/avrxmega3/libgcc/../../../../gcc/libgcc/config/avr/lib1funcs.S:2182
    1278:	ff 92       	push	r15
/home/jenkins-mingw32/workspace/avr-gcc-staging/label/Ubuntu14.04x64-mingw32/gcc-build/avr/avrxmega3/libgcc/../../../../gcc/libgcc/config/avr/lib1funcs.S:2183
    127a:	0f 93       	push	r16
/home/jenkins-mingw32/workspace/avr-gcc-staging/label/Ubuntu14.04x64-mingw32/gcc-build/avr/avrxmega3/libgcc/../../../../gcc/libgcc/config/avr/lib1funcs.S:2184
    127c:	1f 93       	push	r17
/home/jenkins-mingw32/workspace/avr-gcc-staging/label/Ubuntu14.04x64-mingw32/gcc-build/avr/avrxmega3/libgcc/../../../../gcc/libgcc/config/avr/lib1funcs.S:2185
    127e:	cf 93       	push	r28
/home/jenkins-mingw32/workspace/avr-gcc-staging/label/Ubuntu14.04x64-mingw32/gcc-build/avr/avrxmega3/libgcc/../../../../gcc/libgcc/config/avr/lib1funcs.S:2186
    1280:	df 93       	push	r29
/home/jenkins-mingw32/workspace/avr-gcc-staging/label/Ubuntu14.04x64-mingw32/gcc-build/avr/avrxmega3/libgcc/../../../../gcc/libgcc/config/avr/lib1funcs.S:2193
    1282:	cd b7       	in	r28, 0x3d	; 61
/home/jenkins-mingw32/workspace/avr-gcc-staging/label/Ubuntu14.04x64-mingw32/gcc-build/avr/avrxmega3/libgcc/../../../../gcc/libgcc/config/avr/lib1funcs.S:2194
    1284:	de b7       	in	r29, 0x3e	; 62
/home/jenkins-mingw32/workspace/avr-gcc-staging/label/Ubuntu14.04x64-mingw32/gcc-build/avr/avrxmega3/libgcc/../../../../gcc/libgcc/config/avr/lib1funcs.S:2195
    1286:	ca 1b       	sub	r28, r26
/home/jenkins-mingw32/workspace/avr-gcc-staging/label/Ubuntu14.04x64-mingw32/gcc-build/avr/avrxmega3/libgcc/../../../../gcc/libgcc/config/avr/lib1funcs.S:2196
    1288:	db 0b       	sbc	r29, r27
/home/jenkins-mingw32/workspace/avr-gcc-staging/label/Ubuntu14.04x64-mingw32/gcc-build/avr/avrxmega3/libgcc/../../../../gcc/libgcc/config/avr/lib1funcs.S:2197
    128a:	cd bf       	out	0x3d, r28	; 61
/home/jenkins-mingw32/workspace/avr-gcc-staging/label/Ubuntu14.04x64-mingw32/gcc-build/avr/avrxmega3/libgcc/../../../../gcc/libgcc/config/avr/lib1funcs.S:2198
    128c:	de bf       	out	0x3e, r29	; 62
/home/jenkins-mingw32/workspace/avr-gcc-staging/label/Ubuntu14.04x64-mingw32/gcc-build/avr/avrxmega3/libgcc/../../../../gcc/libgcc/config/avr/lib1funcs.S:2211
    128e:	09 94       	ijmp

00001290 <__epilogue_restores__>:
__epilogue_restores__():
/home/jenkins-mingw32/workspace/avr-gcc-staging/label/Ubuntu14.04x64-mingw32/gcc-build/avr/avrxmega3/libgcc/../../../../gcc/libgcc/config/avr/lib1funcs.S:2222
    1290:	2a 88       	ldd	r2, Y+18	; 0x12
/home/jenkins-mingw32/workspace/avr-gcc-staging/label/Ubuntu14.04x64-mingw32/gcc-build/avr/avrxmega3/libgcc/../../../../gcc/libgcc/config/avr/lib1funcs.S:2223
    1292:	39 88       	ldd	r3, Y+17	; 0x11
/home/jenkins-mingw32/workspace/avr-gcc-staging/label/Ubuntu14.04x64-mingw32/gcc-build/avr/avrxmega3/libgcc/../../../../gcc/libgcc/config/avr/lib1funcs.S:2224
    1294:	48 88       	ldd	r4, Y+16	; 0x10
/home/jenkins-mingw32/workspace/avr-gcc-staging/label/Ubuntu14.04x64-mingw32/gcc-build/avr/avrxmega3/libgcc/../../../../gcc/libgcc/config/avr/lib1funcs.S:2225
    1296:	5f 84       	ldd	r5, Y+15	; 0x0f
/home/jenkins-mingw32/workspace/avr-gcc-staging/label/Ubuntu14.04x64-mingw32/gcc-build/avr/avrxmega3/libgcc/../../../../gcc/libgcc/config/avr/lib1funcs.S:2226
    1298:	6e 84       	ldd	r6, Y+14	; 0x0e
/home/jenkins-mingw32/workspace/avr-gcc-staging/label/Ubuntu14.04x64-mingw32/gcc-build/avr/avrxmega3/libgcc/../../../../gcc/libgcc/config/avr/lib1funcs.S:2227
    129a:	7d 84       	ldd	r7, Y+13	; 0x0d
/home/jenkins-mingw32/workspace/avr-gcc-staging/label/Ubuntu14.04x64-mingw32/gcc-build/avr/avrxmega3/libgcc/../../../../gcc/libgcc/config/avr/lib1funcs.S:2228
    129c:	8c 84       	ldd	r8, Y+12	; 0x0c
/home/jenkins-mingw32/workspace/avr-gcc-staging/label/Ubuntu14.04x64-mingw32/gcc-build/avr/avrxmega3/libgcc/../../../../gcc/libgcc/config/avr/lib1funcs.S:2229
    129e:	9b 84       	ldd	r9, Y+11	; 0x0b
/home/jenkins-mingw32/workspace/avr-gcc-staging/label/Ubuntu14.04x64-mingw32/gcc-build/avr/avrxmega3/libgcc/../../../../gcc/libgcc/config/avr/lib1funcs.S:2230
    12a0:	aa 84       	ldd	r10, Y+10	; 0x0a
/home/jenkins-mingw32/workspace/avr-gcc-staging/label/Ubuntu14.04x64-mingw32/gcc-build/avr/avrxmega3/libgcc/../../../../gcc/libgcc/config/avr/lib1funcs.S:2231
    12a2:	b9 84       	ldd	r11, Y+9	; 0x09
/home/jenkins-mingw32/workspace/avr-gcc-staging/label/Ubuntu14.04x64-mingw32/gcc-build/avr/avrxmega3/libgcc/../../../../gcc/libgcc/config/avr/lib1funcs.S:2232
    12a4:	c8 84       	ldd	r12, Y+8	; 0x08
/home/jenkins-mingw32/workspace/avr-gcc-staging/label/Ubuntu14.04x64-mingw32/gcc-build/avr/avrxmega3/libgcc/../../../../gcc/libgcc/config/avr/lib1funcs.S:2233
    12a6:	df 80       	ldd	r13, Y+7	; 0x07
/home/jenkins-mingw32/workspace/avr-gcc-staging/label/Ubuntu14.04x64-mingw32/gcc-build/avr/avrxmega3/libgcc/../../../../gcc/libgcc/config/avr/lib1funcs.S:2234
    12a8:	ee 80       	ldd	r14, Y+6	; 0x06
/home/jenkins-mingw32/workspace/avr-gcc-staging/label/Ubuntu14.04x64-mingw32/gcc-build/avr/avrxmega3/libgcc/../../../../gcc/libgcc/config/avr/lib1funcs.S:2235
    12aa:	fd 80       	ldd	r15, Y+5	; 0x05
/home/jenkins-mingw32/workspace/avr-gcc-staging/label/Ubuntu14.04x64-mingw32/gcc-build/avr/avrxmega3/libgcc/../../../../gcc/libgcc/config/avr/lib1funcs.S:2236
    12ac:	0c 81       	ldd	r16, Y+4	; 0x04
/home/jenkins-mingw32/workspace/avr-gcc-staging/label/Ubuntu14.04x64-mingw32/gcc-build/avr/avrxmega3/libgcc/../../../../gcc/libgcc/config/avr/lib1funcs.S:2237
    12ae:	1b 81       	ldd	r17, Y+3	; 0x03
/home/jenkins-mingw32/workspace/avr-gcc-staging/label/Ubuntu14.04x64-mingw32/gcc-build/avr/avrxmega3/libgcc/../../../../gcc/libgcc/config/avr/lib1funcs.S:2238
    12b0:	aa 81       	ldd	r26, Y+2	; 0x02
/home/jenkins-mingw32/workspace/avr-gcc-staging/label/Ubuntu14.04x64-mingw32/gcc-build/avr/avrxmega3/libgcc/../../../../gcc/libgcc/config/avr/lib1funcs.S:2245
    12b2:	b9 81       	ldd	r27, Y+1	; 0x01
/home/jenkins-mingw32/workspace/avr-gcc-staging/label/Ubuntu14.04x64-mingw32/gcc-build/avr/avrxmega3/libgcc/../../../../gcc/libgcc/config/avr/lib1funcs.S:2246
    12b4:	ce 0f       	add	r28, r30
/home/jenkins-mingw32/workspace/avr-gcc-staging/label/Ubuntu14.04x64-mingw32/gcc-build/avr/avrxmega3/libgcc/../../../../gcc/libgcc/config/avr/lib1funcs.S:2247
    12b6:	d1 1d       	adc	r29, r1
/home/jenkins-mingw32/workspace/avr-gcc-staging/label/Ubuntu14.04x64-mingw32/gcc-build/avr/avrxmega3/libgcc/../../../../gcc/libgcc/config/avr/lib1funcs.S:2248
    12b8:	cd bf       	out	0x3d, r28	; 61
/home/jenkins-mingw32/workspace/avr-gcc-staging/label/Ubuntu14.04x64-mingw32/gcc-build/avr/avrxmega3/libgcc/../../../../gcc/libgcc/config/avr/lib1funcs.S:2249
    12ba:	de bf       	out	0x3e, r29	; 62
/home/jenkins-mingw32/workspace/avr-gcc-staging/label/Ubuntu14.04x64-mingw32/gcc-build/avr/avrxmega3/libgcc/../../../../gcc/libgcc/config/avr/lib1funcs.S:2250
    12bc:	ed 01       	movw	r28, r26
/home/jenkins-mingw32/workspace/avr-gcc-staging/label/Ubuntu14.04x64-mingw32/gcc-build/avr/avrxmega3/libgcc/../../../../gcc/libgcc/config/avr/lib1funcs.S:2263
    12be:	08 95       	ret

000012c0 <__umulhisi3>:
__umulhisi3():
/home/jenkins-mingw32/workspace/avr-gcc-staging/label/Ubuntu14.04x64-mingw32/gcc-build/avr/avrxmega3/libgcc/../../../../gcc/libgcc/config/avr/lib1funcs.S:564
    12c0:	a2 9f       	mul	r26, r18
/home/jenkins-mingw32/workspace/avr-gcc-staging/label/Ubuntu14.04x64-mingw32/gcc-build/avr/avrxmega3/libgcc/../../../../gcc/libgcc/config/avr/lib1funcs.S:565
    12c2:	b0 01       	movw	r22, r0
/home/jenkins-mingw32/workspace/avr-gcc-staging/label/Ubuntu14.04x64-mingw32/gcc-build/avr/avrxmega3/libgcc/../../../../gcc/libgcc/config/avr/lib1funcs.S:566
    12c4:	b3 9f       	mul	r27, r19
/home/jenkins-mingw32/workspace/avr-gcc-staging/label/Ubuntu14.04x64-mingw32/gcc-build/avr/avrxmega3/libgcc/../../../../gcc/libgcc/config/avr/lib1funcs.S:567
    12c6:	c0 01       	movw	r24, r0
/home/jenkins-mingw32/workspace/avr-gcc-staging/label/Ubuntu14.04x64-mingw32/gcc-build/avr/avrxmega3/libgcc/../../../../gcc/libgcc/config/avr/lib1funcs.S:568
    12c8:	a3 9f       	mul	r26, r19
/home/jenkins-mingw32/workspace/avr-gcc-staging/label/Ubuntu14.04x64-mingw32/gcc-build/avr/avrxmega3/libgcc/../../../../gcc/libgcc/config/avr/lib1funcs.S:573
    12ca:	70 0d       	add	r23, r0
/home/jenkins-mingw32/workspace/avr-gcc-staging/label/Ubuntu14.04x64-mingw32/gcc-build/avr/avrxmega3/libgcc/../../../../gcc/libgcc/config/avr/lib1funcs.S:574
    12cc:	81 1d       	adc	r24, r1
/home/jenkins-mingw32/workspace/avr-gcc-staging/label/Ubuntu14.04x64-mingw32/gcc-build/avr/avrxmega3/libgcc/../../../../gcc/libgcc/config/avr/lib1funcs.S:575
    12ce:	11 24       	eor	r1, r1
/home/jenkins-mingw32/workspace/avr-gcc-staging/label/Ubuntu14.04x64-mingw32/gcc-build/avr/avrxmega3/libgcc/../../../../gcc/libgcc/config/avr/lib1funcs.S:576
    12d0:	91 1d       	adc	r25, r1
/home/jenkins-mingw32/workspace/avr-gcc-staging/label/Ubuntu14.04x64-mingw32/gcc-build/avr/avrxmega3/libgcc/../../../../gcc/libgcc/config/avr/lib1funcs.S:580
    12d2:	b2 9f       	mul	r27, r18
/home/jenkins-mingw32/workspace/avr-gcc-staging/label/Ubuntu14.04x64-mingw32/gcc-build/avr/avrxmega3/libgcc/../../../../gcc/libgcc/config/avr/lib1funcs.S:581
    12d4:	70 0d       	add	r23, r0
/home/jenkins-mingw32/workspace/avr-gcc-staging/label/Ubuntu14.04x64-mingw32/gcc-build/avr/avrxmega3/libgcc/../../../../gcc/libgcc/config/avr/lib1funcs.S:582
    12d6:	81 1d       	adc	r24, r1
/home/jenkins-mingw32/workspace/avr-gcc-staging/label/Ubuntu14.04x64-mingw32/gcc-build/avr/avrxmega3/libgcc/../../../../gcc/libgcc/config/avr/lib1funcs.S:583
    12d8:	11 24       	eor	r1, r1
/home/jenkins-mingw32/workspace/avr-gcc-staging/label/Ubuntu14.04x64-mingw32/gcc-build/avr/avrxmega3/libgcc/../../../../gcc/libgcc/config/avr/lib1funcs.S:584
    12da:	91 1d       	adc	r25, r1
/home/jenkins-mingw32/workspace/avr-gcc-staging/label/Ubuntu14.04x64-mingw32/gcc-build/avr/avrxmega3/libgcc/../../../../gcc/libgcc/config/avr/lib1funcs.S:585
    12dc:	08 95       	ret

000012de <__subsf3>:
__subsf3():
    12de:	50 58       	subi	r21, 0x80	; 128

000012e0 <__addsf3>:
    12e0:	bb 27       	eor	r27, r27
    12e2:	aa 27       	eor	r26, r26
    12e4:	0e d0       	rcall	.+28     	; 0x1302 <__addsf3x>
    12e6:	77 cf       	rjmp	.-274    	; 0x11d6 <__fp_round>
__addsf3():
    12e8:	68 df       	rcall	.-304    	; 0x11ba <__fp_pscA>
    12ea:	30 f0       	brcs	.+12     	; 0x12f8 <__addsf3+0x18>
    12ec:	6d df       	rcall	.-294    	; 0x11c8 <__fp_pscB>
    12ee:	20 f0       	brcs	.+8      	; 0x12f8 <__addsf3+0x18>
    12f0:	31 f4       	brne	.+12     	; 0x12fe <__addsf3+0x1e>
    12f2:	9f 3f       	cpi	r25, 0xFF	; 255
    12f4:	11 f4       	brne	.+4      	; 0x12fa <__addsf3+0x1a>
    12f6:	1e f4       	brtc	.+6      	; 0x12fe <__addsf3+0x1e>
    12f8:	5d cf       	rjmp	.-326    	; 0x11b4 <__fp_nan>
    12fa:	0e f4       	brtc	.+2      	; 0x12fe <__addsf3+0x1e>
    12fc:	e0 95       	com	r30
    12fe:	e7 fb       	bst	r30, 7
    1300:	53 cf       	rjmp	.-346    	; 0x11a8 <__fp_inf>

00001302 <__addsf3x>:
__addsf3x():
    1302:	e9 2f       	mov	r30, r25
    1304:	79 df       	rcall	.-270    	; 0x11f8 <__fp_split3>
    1306:	80 f3       	brcs	.-32     	; 0x12e8 <__addsf3+0x8>
    1308:	ba 17       	cp	r27, r26
    130a:	62 07       	cpc	r22, r18
    130c:	73 07       	cpc	r23, r19
    130e:	84 07       	cpc	r24, r20
    1310:	95 07       	cpc	r25, r21
    1312:	18 f0       	brcs	.+6      	; 0x131a <__addsf3x+0x18>
    1314:	71 f4       	brne	.+28     	; 0x1332 <__addsf3x+0x30>
    1316:	9e f5       	brtc	.+102    	; 0x137e <__addsf3x+0x7c>
    1318:	91 cf       	rjmp	.-222    	; 0x123c <__fp_zero>
    131a:	0e f4       	brtc	.+2      	; 0x131e <__addsf3x+0x1c>
    131c:	e0 95       	com	r30
    131e:	0b 2e       	mov	r0, r27
    1320:	ba 2f       	mov	r27, r26
    1322:	a0 2d       	mov	r26, r0
    1324:	0b 01       	movw	r0, r22
    1326:	b9 01       	movw	r22, r18
    1328:	90 01       	movw	r18, r0
    132a:	0c 01       	movw	r0, r24
    132c:	ca 01       	movw	r24, r20
    132e:	a0 01       	movw	r20, r0
    1330:	11 24       	eor	r1, r1
    1332:	ff 27       	eor	r31, r31
    1334:	59 1b       	sub	r21, r25
    1336:	99 f0       	breq	.+38     	; 0x135e <__addsf3x+0x5c>
    1338:	59 3f       	cpi	r21, 0xF9	; 249
    133a:	50 f4       	brcc	.+20     	; 0x1350 <__addsf3x+0x4e>
    133c:	50 3e       	cpi	r21, 0xE0	; 224
    133e:	68 f1       	brcs	.+90     	; 0x139a <__addsf3x+0x98>
    1340:	1a 16       	cp	r1, r26
    1342:	f0 40       	sbci	r31, 0x00	; 0
    1344:	a2 2f       	mov	r26, r18
    1346:	23 2f       	mov	r18, r19
    1348:	34 2f       	mov	r19, r20
    134a:	44 27       	eor	r20, r20
    134c:	58 5f       	subi	r21, 0xF8	; 248
    134e:	f3 cf       	rjmp	.-26     	; 0x1336 <__addsf3x+0x34>
    1350:	46 95       	lsr	r20
    1352:	37 95       	ror	r19
    1354:	27 95       	ror	r18
    1356:	a7 95       	ror	r26
    1358:	f0 40       	sbci	r31, 0x00	; 0
    135a:	53 95       	inc	r21
    135c:	c9 f7       	brne	.-14     	; 0x1350 <__addsf3x+0x4e>
    135e:	7e f4       	brtc	.+30     	; 0x137e <__addsf3x+0x7c>
    1360:	1f 16       	cp	r1, r31
    1362:	ba 0b       	sbc	r27, r26
    1364:	62 0b       	sbc	r22, r18
    1366:	73 0b       	sbc	r23, r19
    1368:	84 0b       	sbc	r24, r20
    136a:	ba f0       	brmi	.+46     	; 0x139a <__addsf3x+0x98>
    136c:	91 50       	subi	r25, 0x01	; 1
    136e:	a1 f0       	breq	.+40     	; 0x1398 <__addsf3x+0x96>
    1370:	ff 0f       	add	r31, r31
    1372:	bb 1f       	adc	r27, r27
    1374:	66 1f       	adc	r22, r22
    1376:	77 1f       	adc	r23, r23
    1378:	88 1f       	adc	r24, r24
    137a:	c2 f7       	brpl	.-16     	; 0x136c <__addsf3x+0x6a>
    137c:	0e c0       	rjmp	.+28     	; 0x139a <__addsf3x+0x98>
    137e:	ba 0f       	add	r27, r26
    1380:	62 1f       	adc	r22, r18
    1382:	73 1f       	adc	r23, r19
    1384:	84 1f       	adc	r24, r20
    1386:	48 f4       	brcc	.+18     	; 0x139a <__addsf3x+0x98>
    1388:	87 95       	ror	r24
    138a:	77 95       	ror	r23
    138c:	67 95       	ror	r22
    138e:	b7 95       	ror	r27
    1390:	f7 95       	ror	r31
    1392:	9e 3f       	cpi	r25, 0xFE	; 254
    1394:	08 f0       	brcs	.+2      	; 0x1398 <__addsf3x+0x96>
    1396:	b3 cf       	rjmp	.-154    	; 0x12fe <__addsf3+0x1e>
    1398:	93 95       	inc	r25
    139a:	88 0f       	add	r24, r24
    139c:	08 f0       	brcs	.+2      	; 0x13a0 <__addsf3x+0x9e>
    139e:	99 27       	eor	r25, r25
    13a0:	ee 0f       	add	r30, r30
    13a2:	97 95       	ror	r25
    13a4:	87 95       	ror	r24
    13a6:	08 95       	ret

000013a8 <__fixunssfsi>:
    13a8:	2f df       	rcall	.-418    	; 0x1208 <__fp_splitA>
    13aa:	88 f0       	brcs	.+34     	; 0x13ce <__fixunssfsi+0x26>
    13ac:	9f 57       	subi	r25, 0x7F	; 127
    13ae:	90 f0       	brcs	.+36     	; 0x13d4 <__fixunssfsi+0x2c>
    13b0:	b9 2f       	mov	r27, r25
    13b2:	99 27       	eor	r25, r25
    13b4:	b7 51       	subi	r27, 0x17	; 23
    13b6:	a0 f0       	brcs	.+40     	; 0x13e0 <__fixunssfsi+0x38>
    13b8:	d1 f0       	breq	.+52     	; 0x13ee <__fixunssfsi+0x46>
    13ba:	66 0f       	add	r22, r22
    13bc:	77 1f       	adc	r23, r23
    13be:	88 1f       	adc	r24, r24
    13c0:	99 1f       	adc	r25, r25
    13c2:	1a f0       	brmi	.+6      	; 0x13ca <__fixunssfsi+0x22>
    13c4:	ba 95       	dec	r27
    13c6:	c9 f7       	brne	.-14     	; 0x13ba <__fixunssfsi+0x12>
    13c8:	12 c0       	rjmp	.+36     	; 0x13ee <__fixunssfsi+0x46>
    13ca:	b1 30       	cpi	r27, 0x01	; 1
    13cc:	81 f0       	breq	.+32     	; 0x13ee <__fixunssfsi+0x46>
__fixunssfsi():
    13ce:	36 df       	rcall	.-404    	; 0x123c <__fp_zero>
    13d0:	b1 e0       	ldi	r27, 0x01	; 1
    13d2:	08 95       	ret
    13d4:	33 cf       	rjmp	.-410    	; 0x123c <__fp_zero>
    13d6:	67 2f       	mov	r22, r23
    13d8:	78 2f       	mov	r23, r24
    13da:	88 27       	eor	r24, r24
    13dc:	b8 5f       	subi	r27, 0xF8	; 248
    13de:	39 f0       	breq	.+14     	; 0x13ee <__fixunssfsi+0x46>
    13e0:	b9 3f       	cpi	r27, 0xF9	; 249
    13e2:	cc f3       	brlt	.-14     	; 0x13d6 <__fixunssfsi+0x2e>
    13e4:	86 95       	lsr	r24
    13e6:	77 95       	ror	r23
    13e8:	67 95       	ror	r22
    13ea:	b3 95       	inc	r27
    13ec:	d9 f7       	brne	.-10     	; 0x13e4 <__fixunssfsi+0x3c>
    13ee:	3e f4       	brtc	.+14     	; 0x13fe <__fixunssfsi+0x56>
    13f0:	90 95       	com	r25
    13f2:	80 95       	com	r24
    13f4:	70 95       	com	r23
    13f6:	61 95       	neg	r22
    13f8:	7f 4f       	sbci	r23, 0xFF	; 255
    13fa:	8f 4f       	sbci	r24, 0xFF	; 255
    13fc:	9f 4f       	sbci	r25, 0xFF	; 255
    13fe:	08 95       	ret

00001400 <__gesf2>:
__gesf2():
    1400:	49 de       	rcall	.-878    	; 0x1094 <__fp_cmp>
    1402:	08 f4       	brcc	.+2      	; 0x1406 <__gesf2+0x6>
    1404:	8f ef       	ldi	r24, 0xFF	; 255
    1406:	08 95       	ret

00001408 <__unordsf2>:
__unordsf2():
    1408:	45 de       	rcall	.-886    	; 0x1094 <__fp_cmp>
    140a:	88 0b       	sbc	r24, r24
    140c:	99 0b       	sbc	r25, r25
    140e:	08 95       	ret

00001410 <__udivmodsi4>:
__udivmodsi4():
/home/jenkins-mingw32/workspace/avr-gcc-staging/label/Ubuntu14.04x64-mingw32/gcc-build/avr/avrxmega3/libgcc/../../../../gcc/libgcc/config/avr/lib1funcs.S:1638
    1410:	a1 e2       	ldi	r26, 0x21	; 33
/home/jenkins-mingw32/workspace/avr-gcc-staging/label/Ubuntu14.04x64-mingw32/gcc-build/avr/avrxmega3/libgcc/../../../../gcc/libgcc/config/avr/lib1funcs.S:1639
    1412:	1a 2e       	mov	r1, r26
/home/jenkins-mingw32/workspace/avr-gcc-staging/label/Ubuntu14.04x64-mingw32/gcc-build/avr/avrxmega3/libgcc/../../../../gcc/libgcc/config/avr/lib1funcs.S:1640
    1414:	aa 1b       	sub	r26, r26
/home/jenkins-mingw32/workspace/avr-gcc-staging/label/Ubuntu14.04x64-mingw32/gcc-build/avr/avrxmega3/libgcc/../../../../gcc/libgcc/config/avr/lib1funcs.S:1641
    1416:	bb 1b       	sub	r27, r27
/home/jenkins-mingw32/workspace/avr-gcc-staging/label/Ubuntu14.04x64-mingw32/gcc-build/avr/avrxmega3/libgcc/../../../../gcc/libgcc/config/avr/lib1funcs.S:1642
    1418:	fd 01       	movw	r30, r26
/home/jenkins-mingw32/workspace/avr-gcc-staging/label/Ubuntu14.04x64-mingw32/gcc-build/avr/avrxmega3/libgcc/../../../../gcc/libgcc/config/avr/lib1funcs.S:1644
    141a:	0d c0       	rjmp	.+26     	; 0x1436 <__udivmodsi4_ep>

0000141c <__udivmodsi4_loop>:
/home/jenkins-mingw32/workspace/avr-gcc-staging/label/Ubuntu14.04x64-mingw32/gcc-build/avr/avrxmega3/libgcc/../../../../gcc/libgcc/config/avr/lib1funcs.S:1646
    141c:	aa 1f       	adc	r26, r26
/home/jenkins-mingw32/workspace/avr-gcc-staging/label/Ubuntu14.04x64-mingw32/gcc-build/avr/avrxmega3/libgcc/../../../../gcc/libgcc/config/avr/lib1funcs.S:1647
    141e:	bb 1f       	adc	r27, r27
/home/jenkins-mingw32/workspace/avr-gcc-staging/label/Ubuntu14.04x64-mingw32/gcc-build/avr/avrxmega3/libgcc/../../../../gcc/libgcc/config/avr/lib1funcs.S:1648
    1420:	ee 1f       	adc	r30, r30
/home/jenkins-mingw32/workspace/avr-gcc-staging/label/Ubuntu14.04x64-mingw32/gcc-build/avr/avrxmega3/libgcc/../../../../gcc/libgcc/config/avr/lib1funcs.S:1649
    1422:	ff 1f       	adc	r31, r31
/home/jenkins-mingw32/workspace/avr-gcc-staging/label/Ubuntu14.04x64-mingw32/gcc-build/avr/avrxmega3/libgcc/../../../../gcc/libgcc/config/avr/lib1funcs.S:1650
    1424:	a2 17       	cp	r26, r18
/home/jenkins-mingw32/workspace/avr-gcc-staging/label/Ubuntu14.04x64-mingw32/gcc-build/avr/avrxmega3/libgcc/../../../../gcc/libgcc/config/avr/lib1funcs.S:1651
    1426:	b3 07       	cpc	r27, r19
/home/jenkins-mingw32/workspace/avr-gcc-staging/label/Ubuntu14.04x64-mingw32/gcc-build/avr/avrxmega3/libgcc/../../../../gcc/libgcc/config/avr/lib1funcs.S:1652
    1428:	e4 07       	cpc	r30, r20
/home/jenkins-mingw32/workspace/avr-gcc-staging/label/Ubuntu14.04x64-mingw32/gcc-build/avr/avrxmega3/libgcc/../../../../gcc/libgcc/config/avr/lib1funcs.S:1653
    142a:	f5 07       	cpc	r31, r21
/home/jenkins-mingw32/workspace/avr-gcc-staging/label/Ubuntu14.04x64-mingw32/gcc-build/avr/avrxmega3/libgcc/../../../../gcc/libgcc/config/avr/lib1funcs.S:1654
    142c:	20 f0       	brcs	.+8      	; 0x1436 <__udivmodsi4_ep>
/home/jenkins-mingw32/workspace/avr-gcc-staging/label/Ubuntu14.04x64-mingw32/gcc-build/avr/avrxmega3/libgcc/../../../../gcc/libgcc/config/avr/lib1funcs.S:1655
    142e:	a2 1b       	sub	r26, r18
/home/jenkins-mingw32/workspace/avr-gcc-staging/label/Ubuntu14.04x64-mingw32/gcc-build/avr/avrxmega3/libgcc/../../../../gcc/libgcc/config/avr/lib1funcs.S:1656
    1430:	b3 0b       	sbc	r27, r19
/home/jenkins-mingw32/workspace/avr-gcc-staging/label/Ubuntu14.04x64-mingw32/gcc-build/avr/avrxmega3/libgcc/../../../../gcc/libgcc/config/avr/lib1funcs.S:1657
    1432:	e4 0b       	sbc	r30, r20
/home/jenkins-mingw32/workspace/avr-gcc-staging/label/Ubuntu14.04x64-mingw32/gcc-build/avr/avrxmega3/libgcc/../../../../gcc/libgcc/config/avr/lib1funcs.S:1658
    1434:	f5 0b       	sbc	r31, r21

00001436 <__udivmodsi4_ep>:
/home/jenkins-mingw32/workspace/avr-gcc-staging/label/Ubuntu14.04x64-mingw32/gcc-build/avr/avrxmega3/libgcc/../../../../gcc/libgcc/config/avr/lib1funcs.S:1660
    1436:	66 1f       	adc	r22, r22
/home/jenkins-mingw32/workspace/avr-gcc-staging/label/Ubuntu14.04x64-mingw32/gcc-build/avr/avrxmega3/libgcc/../../../../gcc/libgcc/config/avr/lib1funcs.S:1661
    1438:	77 1f       	adc	r23, r23
/home/jenkins-mingw32/workspace/avr-gcc-staging/label/Ubuntu14.04x64-mingw32/gcc-build/avr/avrxmega3/libgcc/../../../../gcc/libgcc/config/avr/lib1funcs.S:1662
    143a:	88 1f       	adc	r24, r24
/home/jenkins-mingw32/workspace/avr-gcc-staging/label/Ubuntu14.04x64-mingw32/gcc-build/avr/avrxmega3/libgcc/../../../../gcc/libgcc/config/avr/lib1funcs.S:1663
    143c:	99 1f       	adc	r25, r25
/home/jenkins-mingw32/workspace/avr-gcc-staging/label/Ubuntu14.04x64-mingw32/gcc-build/avr/avrxmega3/libgcc/../../../../gcc/libgcc/config/avr/lib1funcs.S:1664
    143e:	1a 94       	dec	r1
/home/jenkins-mingw32/workspace/avr-gcc-staging/label/Ubuntu14.04x64-mingw32/gcc-build/avr/avrxmega3/libgcc/../../../../gcc/libgcc/config/avr/lib1funcs.S:1665
    1440:	69 f7       	brne	.-38     	; 0x141c <__udivmodsi4_loop>
/home/jenkins-mingw32/workspace/avr-gcc-staging/label/Ubuntu14.04x64-mingw32/gcc-build/avr/avrxmega3/libgcc/../../../../gcc/libgcc/config/avr/lib1funcs.S:1667
    1442:	60 95       	com	r22
/home/jenkins-mingw32/workspace/avr-gcc-staging/label/Ubuntu14.04x64-mingw32/gcc-build/avr/avrxmega3/libgcc/../../../../gcc/libgcc/config/avr/lib1funcs.S:1668
    1444:	70 95       	com	r23
/home/jenkins-mingw32/workspace/avr-gcc-staging/label/Ubuntu14.04x64-mingw32/gcc-build/avr/avrxmega3/libgcc/../../../../gcc/libgcc/config/avr/lib1funcs.S:1669
    1446:	80 95       	com	r24
/home/jenkins-mingw32/workspace/avr-gcc-staging/label/Ubuntu14.04x64-mingw32/gcc-build/avr/avrxmega3/libgcc/../../../../gcc/libgcc/config/avr/lib1funcs.S:1670
    1448:	90 95       	com	r25
/home/jenkins-mingw32/workspace/avr-gcc-staging/label/Ubuntu14.04x64-mingw32/gcc-build/avr/avrxmega3/libgcc/../../../../gcc/libgcc/config/avr/lib1funcs.S:1672
    144a:	9b 01       	movw	r18, r22
/home/jenkins-mingw32/workspace/avr-gcc-staging/label/Ubuntu14.04x64-mingw32/gcc-build/avr/avrxmega3/libgcc/../../../../gcc/libgcc/config/avr/lib1funcs.S:1674
    144c:	ac 01       	movw	r20, r24
/home/jenkins-mingw32/workspace/avr-gcc-staging/label/Ubuntu14.04x64-mingw32/gcc-build/avr/avrxmega3/libgcc/../../../../gcc/libgcc/config/avr/lib1funcs.S:1676
    144e:	bd 01       	movw	r22, r26
/home/jenkins-mingw32/workspace/avr-gcc-staging/label/Ubuntu14.04x64-mingw32/gcc-build/avr/avrxmega3/libgcc/../../../../gcc/libgcc/config/avr/lib1funcs.S:1678
    1450:	cf 01       	movw	r24, r30
/home/jenkins-mingw32/workspace/avr-gcc-staging/label/Ubuntu14.04x64-mingw32/gcc-build/avr/avrxmega3/libgcc/../../../../gcc/libgcc/config/avr/lib1funcs.S:1680
    1452:	08 95       	ret

00001454 <__divmodsi4>:
__divmodsi4():
/home/jenkins-mingw32/workspace/avr-gcc-staging/label/Ubuntu14.04x64-mingw32/gcc-build/avr/avrxmega3/libgcc/../../../../gcc/libgcc/config/avr/lib1funcs.S:1686
    1454:	05 2e       	mov	r0, r21
/home/jenkins-mingw32/workspace/avr-gcc-staging/label/Ubuntu14.04x64-mingw32/gcc-build/avr/avrxmega3/libgcc/../../../../gcc/libgcc/config/avr/lib1funcs.S:1687
    1456:	97 fb       	bst	r25, 7
/home/jenkins-mingw32/workspace/avr-gcc-staging/label/Ubuntu14.04x64-mingw32/gcc-build/avr/avrxmega3/libgcc/../../../../gcc/libgcc/config/avr/lib1funcs.S:1688
    1458:	16 f4       	brtc	.+4      	; 0x145e <__divmodsi4+0xa>
/home/jenkins-mingw32/workspace/avr-gcc-staging/label/Ubuntu14.04x64-mingw32/gcc-build/avr/avrxmega3/libgcc/../../../../gcc/libgcc/config/avr/lib1funcs.S:1689
    145a:	00 94       	com	r0
/home/jenkins-mingw32/workspace/avr-gcc-staging/label/Ubuntu14.04x64-mingw32/gcc-build/avr/avrxmega3/libgcc/../../../../gcc/libgcc/config/avr/lib1funcs.S:1690
    145c:	0f d0       	rcall	.+30     	; 0x147c <__negsi2>
/home/jenkins-mingw32/workspace/avr-gcc-staging/label/Ubuntu14.04x64-mingw32/gcc-build/avr/avrxmega3/libgcc/../../../../gcc/libgcc/config/avr/lib1funcs.S:1692
    145e:	57 fd       	sbrc	r21, 7
/home/jenkins-mingw32/workspace/avr-gcc-staging/label/Ubuntu14.04x64-mingw32/gcc-build/avr/avrxmega3/libgcc/../../../../gcc/libgcc/config/avr/lib1funcs.S:1694
    1460:	05 d0       	rcall	.+10     	; 0x146c <__divmodsi4_neg2>
    1462:	d6 df       	rcall	.-84     	; 0x1410 <__udivmodsi4>
/home/jenkins-mingw32/workspace/avr-gcc-staging/label/Ubuntu14.04x64-mingw32/gcc-build/avr/avrxmega3/libgcc/../../../../gcc/libgcc/config/avr/lib1funcs.S:1695
    1464:	07 fc       	sbrc	r0, 7
/home/jenkins-mingw32/workspace/avr-gcc-staging/label/Ubuntu14.04x64-mingw32/gcc-build/avr/avrxmega3/libgcc/../../../../gcc/libgcc/config/avr/lib1funcs.S:1697
    1466:	02 d0       	rcall	.+4      	; 0x146c <__divmodsi4_neg2>
/home/jenkins-mingw32/workspace/avr-gcc-staging/label/Ubuntu14.04x64-mingw32/gcc-build/avr/avrxmega3/libgcc/../../../../gcc/libgcc/config/avr/lib1funcs.S:1698
    1468:	46 f4       	brtc	.+16     	; 0x147a <__divmodsi4_exit>
    146a:	08 c0       	rjmp	.+16     	; 0x147c <__negsi2>

0000146c <__divmodsi4_neg2>:
/home/jenkins-mingw32/workspace/avr-gcc-staging/label/Ubuntu14.04x64-mingw32/gcc-build/avr/avrxmega3/libgcc/../../../../gcc/libgcc/config/avr/lib1funcs.S:1701
    146c:	50 95       	com	r21
/home/jenkins-mingw32/workspace/avr-gcc-staging/label/Ubuntu14.04x64-mingw32/gcc-build/avr/avrxmega3/libgcc/../../../../gcc/libgcc/config/avr/lib1funcs.S:1702
    146e:	40 95       	com	r20
/home/jenkins-mingw32/workspace/avr-gcc-staging/label/Ubuntu14.04x64-mingw32/gcc-build/avr/avrxmega3/libgcc/../../../../gcc/libgcc/config/avr/lib1funcs.S:1703
    1470:	30 95       	com	r19
/home/jenkins-mingw32/workspace/avr-gcc-staging/label/Ubuntu14.04x64-mingw32/gcc-build/avr/avrxmega3/libgcc/../../../../gcc/libgcc/config/avr/lib1funcs.S:1704
    1472:	21 95       	neg	r18
/home/jenkins-mingw32/workspace/avr-gcc-staging/label/Ubuntu14.04x64-mingw32/gcc-build/avr/avrxmega3/libgcc/../../../../gcc/libgcc/config/avr/lib1funcs.S:1705
    1474:	3f 4f       	sbci	r19, 0xFF	; 255
/home/jenkins-mingw32/workspace/avr-gcc-staging/label/Ubuntu14.04x64-mingw32/gcc-build/avr/avrxmega3/libgcc/../../../../gcc/libgcc/config/avr/lib1funcs.S:1706
    1476:	4f 4f       	sbci	r20, 0xFF	; 255
/home/jenkins-mingw32/workspace/avr-gcc-staging/label/Ubuntu14.04x64-mingw32/gcc-build/avr/avrxmega3/libgcc/../../../../gcc/libgcc/config/avr/lib1funcs.S:1707
    1478:	5f 4f       	sbci	r21, 0xFF	; 255

0000147a <__divmodsi4_exit>:
/home/jenkins-mingw32/workspace/avr-gcc-staging/label/Ubuntu14.04x64-mingw32/gcc-build/avr/avrxmega3/libgcc/../../../../gcc/libgcc/config/avr/lib1funcs.S:1709
    147a:	08 95       	ret

0000147c <__negsi2>:
__negsi2():
/home/jenkins-mingw32/workspace/avr-gcc-staging/label/Ubuntu14.04x64-mingw32/gcc-build/avr/avrxmega3/libgcc/../../../../gcc/libgcc/config/avr/lib1funcs.S:1718
    147c:	90 95       	com	r25
    147e:	80 95       	com	r24
    1480:	70 95       	com	r23
    1482:	61 95       	neg	r22
    1484:	7f 4f       	sbci	r23, 0xFF	; 255
    1486:	8f 4f       	sbci	r24, 0xFF	; 255
    1488:	9f 4f       	sbci	r25, 0xFF	; 255
/home/jenkins-mingw32/workspace/avr-gcc-staging/label/Ubuntu14.04x64-mingw32/gcc-build/avr/avrxmega3/libgcc/../../../../gcc/libgcc/config/avr/lib1funcs.S:1719
    148a:	08 95       	ret

0000148c <__mulshisi3>:
__mulshisi3():
/home/jenkins-mingw32/workspace/avr-gcc-staging/label/Ubuntu14.04x64-mingw32/gcc-build/avr/avrxmega3/libgcc/../../../../gcc/libgcc/config/avr/lib1funcs.S:603
    148c:	b7 ff       	sbrs	r27, 7
/home/jenkins-mingw32/workspace/avr-gcc-staging/label/Ubuntu14.04x64-mingw32/gcc-build/avr/avrxmega3/libgcc/../../../../gcc/libgcc/config/avr/lib1funcs.S:605
    148e:	dd ce       	rjmp	.-582    	; 0x124a <__muluhisi3>

00001490 <__mulohisi3>:
__mulohisi3():
/home/jenkins-mingw32/workspace/avr-gcc-staging/label/Ubuntu14.04x64-mingw32/gcc-build/avr/avrxmega3/libgcc/../../../../gcc/libgcc/config/avr/lib1funcs.S:613
    1490:	dc de       	rcall	.-584    	; 0x124a <__muluhisi3>
    1492:	82 1b       	sub	r24, r18
/home/jenkins-mingw32/workspace/avr-gcc-staging/label/Ubuntu14.04x64-mingw32/gcc-build/avr/avrxmega3/libgcc/../../../../gcc/libgcc/config/avr/lib1funcs.S:615
    1494:	93 0b       	sbc	r25, r19
/home/jenkins-mingw32/workspace/avr-gcc-staging/label/Ubuntu14.04x64-mingw32/gcc-build/avr/avrxmega3/libgcc/../../../../gcc/libgcc/config/avr/lib1funcs.S:616
    1496:	08 95       	ret

00001498 <__tablejump2__>:
__tablejump2__():
/home/jenkins-mingw32/workspace/avr-gcc-staging/label/Ubuntu14.04x64-mingw32/gcc-build/avr/avrxmega3/libgcc/../../../../gcc/libgcc/config/avr/lib1funcs.S:2296
    1498:	ee 0f       	add	r30, r30
/home/jenkins-mingw32/workspace/avr-gcc-staging/label/Ubuntu14.04x64-mingw32/gcc-build/avr/avrxmega3/libgcc/../../../../gcc/libgcc/config/avr/lib1funcs.S:2297
    149a:	ff 1f       	adc	r31, r31
/home/jenkins-mingw32/workspace/avr-gcc-staging/label/Ubuntu14.04x64-mingw32/gcc-build/avr/avrxmega3/libgcc/../../../../gcc/libgcc/config/avr/lib1funcs.S:2328
    149c:	05 90       	lpm	r0, Z+
/home/jenkins-mingw32/workspace/avr-gcc-staging/label/Ubuntu14.04x64-mingw32/gcc-build/avr/avrxmega3/libgcc/../../../../gcc/libgcc/config/avr/lib1funcs.S:2329
    149e:	f4 91       	lpm	r31, Z
/home/jenkins-mingw32/workspace/avr-gcc-staging/label/Ubuntu14.04x64-mingw32/gcc-build/avr/avrxmega3/libgcc/../../../../gcc/libgcc/config/avr/lib1funcs.S:2330
    14a0:	e0 2d       	mov	r30, r0
/home/jenkins-mingw32/workspace/avr-gcc-staging/label/Ubuntu14.04x64-mingw32/gcc-build/avr/avrxmega3/libgcc/../../../../gcc/libgcc/config/avr/lib1funcs.S:2331
    14a2:	09 94       	ijmp

000014a4 <malloc>:
malloc():
    14a4:	0f 93       	push	r16
    14a6:	1f 93       	push	r17
    14a8:	cf 93       	push	r28
    14aa:	df 93       	push	r29
    14ac:	82 30       	cpi	r24, 0x02	; 2
    14ae:	91 05       	cpc	r25, r1
    14b0:	10 f4       	brcc	.+4      	; 0x14b6 <malloc+0x12>
    14b2:	82 e0       	ldi	r24, 0x02	; 2
    14b4:	90 e0       	ldi	r25, 0x00	; 0
    14b6:	e0 91 b7 28 	lds	r30, 0x28B7	; 0x8028b7 <__flp>
    14ba:	f0 91 b8 28 	lds	r31, 0x28B8	; 0x8028b8 <__flp+0x1>
    14be:	30 e0       	ldi	r19, 0x00	; 0
    14c0:	20 e0       	ldi	r18, 0x00	; 0
    14c2:	b0 e0       	ldi	r27, 0x00	; 0
    14c4:	a0 e0       	ldi	r26, 0x00	; 0
    14c6:	30 97       	sbiw	r30, 0x00	; 0
    14c8:	99 f4       	brne	.+38     	; 0x14f0 <malloc+0x4c>
    14ca:	21 15       	cp	r18, r1
    14cc:	31 05       	cpc	r19, r1
    14ce:	09 f4       	brne	.+2      	; 0x14d2 <malloc+0x2e>
    14d0:	4a c0       	rjmp	.+148    	; 0x1566 <malloc+0xc2>
    14d2:	28 1b       	sub	r18, r24
    14d4:	39 0b       	sbc	r19, r25
    14d6:	24 30       	cpi	r18, 0x04	; 4
    14d8:	31 05       	cpc	r19, r1
    14da:	d8 f5       	brcc	.+118    	; 0x1552 <malloc+0xae>
    14dc:	8a 81       	ldd	r24, Y+2	; 0x02
    14de:	9b 81       	ldd	r25, Y+3	; 0x03
    14e0:	61 15       	cp	r22, r1
    14e2:	71 05       	cpc	r23, r1
    14e4:	89 f1       	breq	.+98     	; 0x1548 <malloc+0xa4>
    14e6:	fb 01       	movw	r30, r22
    14e8:	82 83       	std	Z+2, r24	; 0x02
    14ea:	93 83       	std	Z+3, r25	; 0x03
    14ec:	fe 01       	movw	r30, r28
    14ee:	11 c0       	rjmp	.+34     	; 0x1512 <malloc+0x6e>
    14f0:	40 81       	ld	r20, Z
    14f2:	51 81       	ldd	r21, Z+1	; 0x01
    14f4:	02 81       	ldd	r16, Z+2	; 0x02
    14f6:	13 81       	ldd	r17, Z+3	; 0x03
    14f8:	48 17       	cp	r20, r24
    14fa:	59 07       	cpc	r21, r25
    14fc:	e0 f0       	brcs	.+56     	; 0x1536 <malloc+0x92>
    14fe:	48 17       	cp	r20, r24
    1500:	59 07       	cpc	r21, r25
    1502:	99 f4       	brne	.+38     	; 0x152a <malloc+0x86>
    1504:	10 97       	sbiw	r26, 0x00	; 0
    1506:	61 f0       	breq	.+24     	; 0x1520 <malloc+0x7c>
    1508:	12 96       	adiw	r26, 0x02	; 2
    150a:	0c 93       	st	X, r16
    150c:	12 97       	sbiw	r26, 0x02	; 2
    150e:	13 96       	adiw	r26, 0x03	; 3
    1510:	1c 93       	st	X, r17
    1512:	32 96       	adiw	r30, 0x02	; 2
    1514:	cf 01       	movw	r24, r30
    1516:	df 91       	pop	r29
    1518:	cf 91       	pop	r28
    151a:	1f 91       	pop	r17
    151c:	0f 91       	pop	r16
    151e:	08 95       	ret
    1520:	00 93 b7 28 	sts	0x28B7, r16	; 0x8028b7 <__flp>
    1524:	10 93 b8 28 	sts	0x28B8, r17	; 0x8028b8 <__flp+0x1>
    1528:	f4 cf       	rjmp	.-24     	; 0x1512 <malloc+0x6e>
    152a:	21 15       	cp	r18, r1
    152c:	31 05       	cpc	r19, r1
    152e:	51 f0       	breq	.+20     	; 0x1544 <malloc+0xa0>
    1530:	42 17       	cp	r20, r18
    1532:	53 07       	cpc	r21, r19
    1534:	38 f0       	brcs	.+14     	; 0x1544 <malloc+0xa0>
    1536:	a9 01       	movw	r20, r18
    1538:	db 01       	movw	r26, r22
    153a:	9a 01       	movw	r18, r20
    153c:	bd 01       	movw	r22, r26
    153e:	df 01       	movw	r26, r30
    1540:	f8 01       	movw	r30, r16
    1542:	c1 cf       	rjmp	.-126    	; 0x14c6 <malloc+0x22>
    1544:	ef 01       	movw	r28, r30
    1546:	f9 cf       	rjmp	.-14     	; 0x153a <malloc+0x96>
    1548:	80 93 b7 28 	sts	0x28B7, r24	; 0x8028b7 <__flp>
    154c:	90 93 b8 28 	sts	0x28B8, r25	; 0x8028b8 <__flp+0x1>
    1550:	cd cf       	rjmp	.-102    	; 0x14ec <malloc+0x48>
    1552:	fe 01       	movw	r30, r28
    1554:	e2 0f       	add	r30, r18
    1556:	f3 1f       	adc	r31, r19
    1558:	81 93       	st	Z+, r24
    155a:	91 93       	st	Z+, r25
    155c:	22 50       	subi	r18, 0x02	; 2
    155e:	31 09       	sbc	r19, r1
    1560:	28 83       	st	Y, r18
    1562:	39 83       	std	Y+1, r19	; 0x01
    1564:	d7 cf       	rjmp	.-82     	; 0x1514 <malloc+0x70>
    1566:	20 91 b5 28 	lds	r18, 0x28B5	; 0x8028b5 <__brkval>
    156a:	30 91 b6 28 	lds	r19, 0x28B6	; 0x8028b6 <__brkval+0x1>
    156e:	23 2b       	or	r18, r19
    1570:	41 f4       	brne	.+16     	; 0x1582 <malloc+0xde>
    1572:	20 91 02 28 	lds	r18, 0x2802	; 0x802802 <__malloc_heap_start>
    1576:	30 91 03 28 	lds	r19, 0x2803	; 0x802803 <__malloc_heap_start+0x1>
    157a:	20 93 b5 28 	sts	0x28B5, r18	; 0x8028b5 <__brkval>
    157e:	30 93 b6 28 	sts	0x28B6, r19	; 0x8028b6 <__brkval+0x1>
    1582:	20 91 00 28 	lds	r18, 0x2800	; 0x802800 <__DATA_REGION_ORIGIN__>
    1586:	30 91 01 28 	lds	r19, 0x2801	; 0x802801 <__DATA_REGION_ORIGIN__+0x1>
    158a:	21 15       	cp	r18, r1
    158c:	31 05       	cpc	r19, r1
    158e:	41 f4       	brne	.+16     	; 0x15a0 <malloc+0xfc>
    1590:	2d b7       	in	r18, 0x3d	; 61
    1592:	3e b7       	in	r19, 0x3e	; 62
    1594:	40 91 04 28 	lds	r20, 0x2804	; 0x802804 <__malloc_margin>
    1598:	50 91 05 28 	lds	r21, 0x2805	; 0x802805 <__malloc_margin+0x1>
    159c:	24 1b       	sub	r18, r20
    159e:	35 0b       	sbc	r19, r21
    15a0:	e0 91 b5 28 	lds	r30, 0x28B5	; 0x8028b5 <__brkval>
    15a4:	f0 91 b6 28 	lds	r31, 0x28B6	; 0x8028b6 <__brkval+0x1>
    15a8:	e2 17       	cp	r30, r18
    15aa:	f3 07       	cpc	r31, r19
    15ac:	a0 f4       	brcc	.+40     	; 0x15d6 <malloc+0x132>
    15ae:	2e 1b       	sub	r18, r30
    15b0:	3f 0b       	sbc	r19, r31
    15b2:	28 17       	cp	r18, r24
    15b4:	39 07       	cpc	r19, r25
    15b6:	78 f0       	brcs	.+30     	; 0x15d6 <malloc+0x132>
    15b8:	ac 01       	movw	r20, r24
    15ba:	4e 5f       	subi	r20, 0xFE	; 254
    15bc:	5f 4f       	sbci	r21, 0xFF	; 255
    15be:	24 17       	cp	r18, r20
    15c0:	35 07       	cpc	r19, r21
    15c2:	48 f0       	brcs	.+18     	; 0x15d6 <malloc+0x132>
    15c4:	4e 0f       	add	r20, r30
    15c6:	5f 1f       	adc	r21, r31
    15c8:	40 93 b5 28 	sts	0x28B5, r20	; 0x8028b5 <__brkval>
    15cc:	50 93 b6 28 	sts	0x28B6, r21	; 0x8028b6 <__brkval+0x1>
    15d0:	81 93       	st	Z+, r24
    15d2:	91 93       	st	Z+, r25
    15d4:	9f cf       	rjmp	.-194    	; 0x1514 <malloc+0x70>
    15d6:	f0 e0       	ldi	r31, 0x00	; 0
    15d8:	e0 e0       	ldi	r30, 0x00	; 0
    15da:	9c cf       	rjmp	.-200    	; 0x1514 <malloc+0x70>

000015dc <free>:
free():
    15dc:	cf 93       	push	r28
    15de:	df 93       	push	r29
    15e0:	00 97       	sbiw	r24, 0x00	; 0
    15e2:	e9 f0       	breq	.+58     	; 0x161e <free+0x42>
    15e4:	fc 01       	movw	r30, r24
    15e6:	32 97       	sbiw	r30, 0x02	; 2
    15e8:	12 82       	std	Z+2, r1	; 0x02
    15ea:	13 82       	std	Z+3, r1	; 0x03
    15ec:	a0 91 b7 28 	lds	r26, 0x28B7	; 0x8028b7 <__flp>
    15f0:	b0 91 b8 28 	lds	r27, 0x28B8	; 0x8028b8 <__flp+0x1>
    15f4:	ed 01       	movw	r28, r26
    15f6:	30 e0       	ldi	r19, 0x00	; 0
    15f8:	20 e0       	ldi	r18, 0x00	; 0
    15fa:	10 97       	sbiw	r26, 0x00	; 0
    15fc:	a1 f4       	brne	.+40     	; 0x1626 <free+0x4a>
    15fe:	20 81       	ld	r18, Z
    1600:	31 81       	ldd	r19, Z+1	; 0x01
    1602:	82 0f       	add	r24, r18
    1604:	93 1f       	adc	r25, r19
    1606:	20 91 b5 28 	lds	r18, 0x28B5	; 0x8028b5 <__brkval>
    160a:	30 91 b6 28 	lds	r19, 0x28B6	; 0x8028b6 <__brkval+0x1>
    160e:	28 17       	cp	r18, r24
    1610:	39 07       	cpc	r19, r25
    1612:	09 f0       	breq	.+2      	; 0x1616 <free+0x3a>
    1614:	61 c0       	rjmp	.+194    	; 0x16d8 <free+0xfc>
    1616:	e0 93 b5 28 	sts	0x28B5, r30	; 0x8028b5 <__brkval>
    161a:	f0 93 b6 28 	sts	0x28B6, r31	; 0x8028b6 <__brkval+0x1>
    161e:	df 91       	pop	r29
    1620:	cf 91       	pop	r28
    1622:	08 95       	ret
    1624:	ea 01       	movw	r28, r20
    1626:	ce 17       	cp	r28, r30
    1628:	df 07       	cpc	r29, r31
    162a:	e8 f5       	brcc	.+122    	; 0x16a6 <free+0xca>
    162c:	4a 81       	ldd	r20, Y+2	; 0x02
    162e:	5b 81       	ldd	r21, Y+3	; 0x03
    1630:	9e 01       	movw	r18, r28
    1632:	41 15       	cp	r20, r1
    1634:	51 05       	cpc	r21, r1
    1636:	b1 f7       	brne	.-20     	; 0x1624 <free+0x48>
    1638:	e9 01       	movw	r28, r18
    163a:	ea 83       	std	Y+2, r30	; 0x02
    163c:	fb 83       	std	Y+3, r31	; 0x03
    163e:	49 91       	ld	r20, Y+
    1640:	59 91       	ld	r21, Y+
    1642:	c4 0f       	add	r28, r20
    1644:	d5 1f       	adc	r29, r21
    1646:	ec 17       	cp	r30, r28
    1648:	fd 07       	cpc	r31, r29
    164a:	61 f4       	brne	.+24     	; 0x1664 <free+0x88>
    164c:	80 81       	ld	r24, Z
    164e:	91 81       	ldd	r25, Z+1	; 0x01
    1650:	02 96       	adiw	r24, 0x02	; 2
    1652:	84 0f       	add	r24, r20
    1654:	95 1f       	adc	r25, r21
    1656:	e9 01       	movw	r28, r18
    1658:	88 83       	st	Y, r24
    165a:	99 83       	std	Y+1, r25	; 0x01
    165c:	82 81       	ldd	r24, Z+2	; 0x02
    165e:	93 81       	ldd	r25, Z+3	; 0x03
    1660:	8a 83       	std	Y+2, r24	; 0x02
    1662:	9b 83       	std	Y+3, r25	; 0x03
    1664:	f0 e0       	ldi	r31, 0x00	; 0
    1666:	e0 e0       	ldi	r30, 0x00	; 0
    1668:	12 96       	adiw	r26, 0x02	; 2
    166a:	8d 91       	ld	r24, X+
    166c:	9c 91       	ld	r25, X
    166e:	13 97       	sbiw	r26, 0x03	; 3
    1670:	00 97       	sbiw	r24, 0x00	; 0
    1672:	b9 f5       	brne	.+110    	; 0x16e2 <free+0x106>
    1674:	2d 91       	ld	r18, X+
    1676:	3c 91       	ld	r19, X
    1678:	11 97       	sbiw	r26, 0x01	; 1
    167a:	cd 01       	movw	r24, r26
    167c:	02 96       	adiw	r24, 0x02	; 2
    167e:	82 0f       	add	r24, r18
    1680:	93 1f       	adc	r25, r19
    1682:	20 91 b5 28 	lds	r18, 0x28B5	; 0x8028b5 <__brkval>
    1686:	30 91 b6 28 	lds	r19, 0x28B6	; 0x8028b6 <__brkval+0x1>
    168a:	28 17       	cp	r18, r24
    168c:	39 07       	cpc	r19, r25
    168e:	39 f6       	brne	.-114    	; 0x161e <free+0x42>
    1690:	30 97       	sbiw	r30, 0x00	; 0
    1692:	51 f5       	brne	.+84     	; 0x16e8 <free+0x10c>
    1694:	10 92 b7 28 	sts	0x28B7, r1	; 0x8028b7 <__flp>
    1698:	10 92 b8 28 	sts	0x28B8, r1	; 0x8028b8 <__flp+0x1>
    169c:	a0 93 b5 28 	sts	0x28B5, r26	; 0x8028b5 <__brkval>
    16a0:	b0 93 b6 28 	sts	0x28B6, r27	; 0x8028b6 <__brkval+0x1>
    16a4:	bc cf       	rjmp	.-136    	; 0x161e <free+0x42>
    16a6:	c2 83       	std	Z+2, r28	; 0x02
    16a8:	d3 83       	std	Z+3, r29	; 0x03
    16aa:	40 81       	ld	r20, Z
    16ac:	51 81       	ldd	r21, Z+1	; 0x01
    16ae:	84 0f       	add	r24, r20
    16b0:	95 1f       	adc	r25, r21
    16b2:	c8 17       	cp	r28, r24
    16b4:	d9 07       	cpc	r29, r25
    16b6:	61 f4       	brne	.+24     	; 0x16d0 <free+0xf4>
    16b8:	4e 5f       	subi	r20, 0xFE	; 254
    16ba:	5f 4f       	sbci	r21, 0xFF	; 255
    16bc:	88 81       	ld	r24, Y
    16be:	99 81       	ldd	r25, Y+1	; 0x01
    16c0:	48 0f       	add	r20, r24
    16c2:	59 1f       	adc	r21, r25
    16c4:	40 83       	st	Z, r20
    16c6:	51 83       	std	Z+1, r21	; 0x01
    16c8:	8a 81       	ldd	r24, Y+2	; 0x02
    16ca:	9b 81       	ldd	r25, Y+3	; 0x03
    16cc:	82 83       	std	Z+2, r24	; 0x02
    16ce:	93 83       	std	Z+3, r25	; 0x03
    16d0:	21 15       	cp	r18, r1
    16d2:	31 05       	cpc	r19, r1
    16d4:	09 f0       	breq	.+2      	; 0x16d8 <free+0xfc>
    16d6:	b0 cf       	rjmp	.-160    	; 0x1638 <free+0x5c>
    16d8:	e0 93 b7 28 	sts	0x28B7, r30	; 0x8028b7 <__flp>
    16dc:	f0 93 b8 28 	sts	0x28B8, r31	; 0x8028b8 <__flp+0x1>
    16e0:	9e cf       	rjmp	.-196    	; 0x161e <free+0x42>
    16e2:	fd 01       	movw	r30, r26
    16e4:	dc 01       	movw	r26, r24
    16e6:	c0 cf       	rjmp	.-128    	; 0x1668 <free+0x8c>
    16e8:	12 82       	std	Z+2, r1	; 0x02
    16ea:	13 82       	std	Z+3, r1	; 0x03
    16ec:	d7 cf       	rjmp	.-82     	; 0x169c <free+0xc0>

000016ee <realloc>:
realloc():
    16ee:	b0 e0       	ldi	r27, 0x00	; 0
    16f0:	a0 e0       	ldi	r26, 0x00	; 0
    16f2:	ec e7       	ldi	r30, 0x7C	; 124
    16f4:	fb e0       	ldi	r31, 0x0B	; 11
    16f6:	b5 cd       	rjmp	.-1174   	; 0x1262 <__prologue_saves__+0x4>
    16f8:	8c 01       	movw	r16, r24
    16fa:	00 97       	sbiw	r24, 0x00	; 0
    16fc:	41 f4       	brne	.+16     	; 0x170e <realloc+0x20>
    16fe:	cb 01       	movw	r24, r22
    1700:	d1 de       	rcall	.-606    	; 0x14a4 <malloc>
    1702:	8c 01       	movw	r16, r24
    1704:	c8 01       	movw	r24, r16
    1706:	cd b7       	in	r28, 0x3d	; 61
    1708:	de b7       	in	r29, 0x3e	; 62
    170a:	e0 e1       	ldi	r30, 0x10	; 16
    170c:	c3 cd       	rjmp	.-1146   	; 0x1294 <__epilogue_restores__+0x4>
    170e:	fc 01       	movw	r30, r24
    1710:	e6 0f       	add	r30, r22
    1712:	f7 1f       	adc	r31, r23
    1714:	9c 01       	movw	r18, r24
    1716:	22 50       	subi	r18, 0x02	; 2
    1718:	31 09       	sbc	r19, r1
    171a:	e2 17       	cp	r30, r18
    171c:	f3 07       	cpc	r31, r19
    171e:	08 f4       	brcc	.+2      	; 0x1722 <realloc+0x34>
    1720:	99 c0       	rjmp	.+306    	; 0x1854 <__DATA_REGION_LENGTH__+0x54>
    1722:	d9 01       	movw	r26, r18
    1724:	cd 91       	ld	r28, X+
    1726:	dc 91       	ld	r29, X
    1728:	11 97       	sbiw	r26, 0x01	; 1
    172a:	c6 17       	cp	r28, r22
    172c:	d7 07       	cpc	r29, r23
    172e:	90 f0       	brcs	.+36     	; 0x1754 <realloc+0x66>
    1730:	c5 30       	cpi	r28, 0x05	; 5
    1732:	d1 05       	cpc	r29, r1
    1734:	38 f3       	brcs	.-50     	; 0x1704 <realloc+0x16>
    1736:	ce 01       	movw	r24, r28
    1738:	04 97       	sbiw	r24, 0x04	; 4
    173a:	86 17       	cp	r24, r22
    173c:	97 07       	cpc	r25, r23
    173e:	10 f3       	brcs	.-60     	; 0x1704 <realloc+0x16>
    1740:	c6 1b       	sub	r28, r22
    1742:	d7 0b       	sbc	r29, r23
    1744:	22 97       	sbiw	r28, 0x02	; 2
    1746:	c1 93       	st	Z+, r28
    1748:	d1 93       	st	Z+, r29
    174a:	6d 93       	st	X+, r22
    174c:	7c 93       	st	X, r23
    174e:	cf 01       	movw	r24, r30
    1750:	45 df       	rcall	.-374    	; 0x15dc <free>
    1752:	d8 cf       	rjmp	.-80     	; 0x1704 <realloc+0x16>
    1754:	5b 01       	movw	r10, r22
    1756:	ac 1a       	sub	r10, r28
    1758:	bd 0a       	sbc	r11, r29
    175a:	4c 01       	movw	r8, r24
    175c:	8c 0e       	add	r8, r28
    175e:	9d 1e       	adc	r9, r29
    1760:	a0 91 b7 28 	lds	r26, 0x28B7	; 0x8028b7 <__flp>
    1764:	b0 91 b8 28 	lds	r27, 0x28B8	; 0x8028b8 <__flp+0x1>
    1768:	51 2c       	mov	r5, r1
    176a:	41 2c       	mov	r4, r1
    176c:	f1 2c       	mov	r15, r1
    176e:	e1 2c       	mov	r14, r1
    1770:	10 97       	sbiw	r26, 0x00	; 0
    1772:	31 f5       	brne	.+76     	; 0x17c0 <realloc+0xd2>
    1774:	80 91 b5 28 	lds	r24, 0x28B5	; 0x8028b5 <__brkval>
    1778:	90 91 b6 28 	lds	r25, 0x28B6	; 0x8028b6 <__brkval+0x1>
    177c:	88 15       	cp	r24, r8
    177e:	99 05       	cpc	r25, r9
    1780:	09 f0       	breq	.+2      	; 0x1784 <realloc+0x96>
    1782:	5c c0       	rjmp	.+184    	; 0x183c <__DATA_REGION_LENGTH__+0x3c>
    1784:	46 16       	cp	r4, r22
    1786:	57 06       	cpc	r5, r23
    1788:	08 f0       	brcs	.+2      	; 0x178c <realloc+0x9e>
    178a:	58 c0       	rjmp	.+176    	; 0x183c <__DATA_REGION_LENGTH__+0x3c>
    178c:	80 91 00 28 	lds	r24, 0x2800	; 0x802800 <__DATA_REGION_ORIGIN__>
    1790:	90 91 01 28 	lds	r25, 0x2801	; 0x802801 <__DATA_REGION_ORIGIN__+0x1>
    1794:	00 97       	sbiw	r24, 0x00	; 0
    1796:	41 f4       	brne	.+16     	; 0x17a8 <realloc+0xba>
    1798:	8d b7       	in	r24, 0x3d	; 61
    179a:	9e b7       	in	r25, 0x3e	; 62
    179c:	40 91 04 28 	lds	r20, 0x2804	; 0x802804 <__malloc_margin>
    17a0:	50 91 05 28 	lds	r21, 0x2805	; 0x802805 <__malloc_margin+0x1>
    17a4:	84 1b       	sub	r24, r20
    17a6:	95 0b       	sbc	r25, r21
    17a8:	e8 17       	cp	r30, r24
    17aa:	f9 07       	cpc	r31, r25
    17ac:	08 f0       	brcs	.+2      	; 0x17b0 <realloc+0xc2>
    17ae:	52 c0       	rjmp	.+164    	; 0x1854 <__DATA_REGION_LENGTH__+0x54>
    17b0:	e0 93 b5 28 	sts	0x28B5, r30	; 0x8028b5 <__brkval>
    17b4:	f0 93 b6 28 	sts	0x28B6, r31	; 0x8028b6 <__brkval+0x1>
    17b8:	f9 01       	movw	r30, r18
    17ba:	60 83       	st	Z, r22
    17bc:	71 83       	std	Z+1, r23	; 0x01
    17be:	a2 cf       	rjmp	.-188    	; 0x1704 <realloc+0x16>
    17c0:	8d 91       	ld	r24, X+
    17c2:	9c 91       	ld	r25, X
    17c4:	11 97       	sbiw	r26, 0x01	; 1
    17c6:	12 96       	adiw	r26, 0x02	; 2
    17c8:	6c 90       	ld	r6, X
    17ca:	12 97       	sbiw	r26, 0x02	; 2
    17cc:	13 96       	adiw	r26, 0x03	; 3
    17ce:	7c 90       	ld	r7, X
    17d0:	13 97       	sbiw	r26, 0x03	; 3
    17d2:	a8 15       	cp	r26, r8
    17d4:	b9 05       	cpc	r27, r9
    17d6:	59 f5       	brne	.+86     	; 0x182e <__DATA_REGION_LENGTH__+0x2e>
    17d8:	6c 01       	movw	r12, r24
    17da:	42 e0       	ldi	r20, 0x02	; 2
    17dc:	c4 0e       	add	r12, r20
    17de:	d1 1c       	adc	r13, r1
    17e0:	ca 14       	cp	r12, r10
    17e2:	db 04       	cpc	r13, r11
    17e4:	20 f1       	brcs	.+72     	; 0x182e <__DATA_REGION_LENGTH__+0x2e>
    17e6:	ac 01       	movw	r20, r24
    17e8:	4a 19       	sub	r20, r10
    17ea:	5b 09       	sbc	r21, r11
    17ec:	da 01       	movw	r26, r20
    17ee:	12 96       	adiw	r26, 0x02	; 2
    17f0:	15 97       	sbiw	r26, 0x05	; 5
    17f2:	80 f0       	brcs	.+32     	; 0x1814 <__DATA_REGION_LENGTH__+0x14>
    17f4:	62 82       	std	Z+2, r6	; 0x02
    17f6:	73 82       	std	Z+3, r7	; 0x03
    17f8:	40 83       	st	Z, r20
    17fa:	51 83       	std	Z+1, r21	; 0x01
    17fc:	d9 01       	movw	r26, r18
    17fe:	6d 93       	st	X+, r22
    1800:	7c 93       	st	X, r23
    1802:	e1 14       	cp	r14, r1
    1804:	f1 04       	cpc	r15, r1
    1806:	71 f0       	breq	.+28     	; 0x1824 <__DATA_REGION_LENGTH__+0x24>
    1808:	d7 01       	movw	r26, r14
    180a:	12 96       	adiw	r26, 0x02	; 2
    180c:	ed 93       	st	X+, r30
    180e:	fc 93       	st	X, r31
    1810:	13 97       	sbiw	r26, 0x03	; 3
    1812:	78 cf       	rjmp	.-272    	; 0x1704 <realloc+0x16>
    1814:	22 96       	adiw	r28, 0x02	; 2
    1816:	8c 0f       	add	r24, r28
    1818:	9d 1f       	adc	r25, r29
    181a:	f9 01       	movw	r30, r18
    181c:	80 83       	st	Z, r24
    181e:	91 83       	std	Z+1, r25	; 0x01
    1820:	f3 01       	movw	r30, r6
    1822:	ef cf       	rjmp	.-34     	; 0x1802 <__DATA_REGION_LENGTH__+0x2>
    1824:	e0 93 b7 28 	sts	0x28B7, r30	; 0x8028b7 <__flp>
    1828:	f0 93 b8 28 	sts	0x28B8, r31	; 0x8028b8 <__flp+0x1>
    182c:	6b cf       	rjmp	.-298    	; 0x1704 <realloc+0x16>
    182e:	48 16       	cp	r4, r24
    1830:	59 06       	cpc	r5, r25
    1832:	08 f4       	brcc	.+2      	; 0x1836 <__DATA_REGION_LENGTH__+0x36>
    1834:	2c 01       	movw	r4, r24
    1836:	7d 01       	movw	r14, r26
    1838:	d3 01       	movw	r26, r6
    183a:	9a cf       	rjmp	.-204    	; 0x1770 <realloc+0x82>
    183c:	cb 01       	movw	r24, r22
    183e:	32 de       	rcall	.-924    	; 0x14a4 <malloc>
    1840:	7c 01       	movw	r14, r24
    1842:	00 97       	sbiw	r24, 0x00	; 0
    1844:	39 f0       	breq	.+14     	; 0x1854 <__DATA_REGION_LENGTH__+0x54>
    1846:	ae 01       	movw	r20, r28
    1848:	b8 01       	movw	r22, r16
    184a:	0f d0       	rcall	.+30     	; 0x186a <memcpy>
    184c:	c8 01       	movw	r24, r16
    184e:	c6 de       	rcall	.-628    	; 0x15dc <free>
    1850:	87 01       	movw	r16, r14
    1852:	58 cf       	rjmp	.-336    	; 0x1704 <realloc+0x16>
    1854:	10 e0       	ldi	r17, 0x00	; 0
    1856:	00 e0       	ldi	r16, 0x00	; 0
    1858:	55 cf       	rjmp	.-342    	; 0x1704 <realloc+0x16>

0000185a <toupper>:
toupper():
    185a:	91 11       	cpse	r25, r1
    185c:	08 95       	ret
    185e:	81 56       	subi	r24, 0x61	; 97
    1860:	8a 51       	subi	r24, 0x1A	; 26
    1862:	08 f4       	brcc	.+2      	; 0x1866 <toupper+0xc>
    1864:	80 52       	subi	r24, 0x20	; 32
    1866:	85 58       	subi	r24, 0x85	; 133
    1868:	08 95       	ret

0000186a <memcpy>:
memcpy():
    186a:	fb 01       	movw	r30, r22
    186c:	dc 01       	movw	r26, r24
    186e:	02 c0       	rjmp	.+4      	; 0x1874 <memcpy+0xa>
    1870:	01 90       	ld	r0, Z+
    1872:	0d 92       	st	X+, r0
    1874:	41 50       	subi	r20, 0x01	; 1
    1876:	50 40       	sbci	r21, 0x00	; 0
    1878:	d8 f7       	brcc	.-10     	; 0x1870 <memcpy+0x6>
    187a:	08 95       	ret

0000187c <strchr>:
strchr():
    187c:	fc 01       	movw	r30, r24
    187e:	81 91       	ld	r24, Z+
    1880:	86 17       	cp	r24, r22
    1882:	21 f0       	breq	.+8      	; 0x188c <strchr+0x10>
    1884:	88 23       	and	r24, r24
    1886:	d9 f7       	brne	.-10     	; 0x187e <strchr+0x2>
    1888:	99 27       	eor	r25, r25
    188a:	08 95       	ret
    188c:	31 97       	sbiw	r30, 0x01	; 1
    188e:	cf 01       	movw	r24, r30
    1890:	08 95       	ret

00001892 <strcmp>:
strcmp():
    1892:	fb 01       	movw	r30, r22
    1894:	dc 01       	movw	r26, r24
    1896:	8d 91       	ld	r24, X+
    1898:	01 90       	ld	r0, Z+
    189a:	80 19       	sub	r24, r0
    189c:	01 10       	cpse	r0, r1
    189e:	d9 f3       	breq	.-10     	; 0x1896 <strcmp+0x4>
    18a0:	99 0b       	sbc	r25, r25
    18a2:	08 95       	ret

000018a4 <strcpy>:
strcpy():
    18a4:	fb 01       	movw	r30, r22
    18a6:	dc 01       	movw	r26, r24
    18a8:	01 90       	ld	r0, Z+
    18aa:	0d 92       	st	X+, r0
    18ac:	00 20       	and	r0, r0
    18ae:	e1 f7       	brne	.-8      	; 0x18a8 <strcpy+0x4>
    18b0:	08 95       	ret

000018b2 <__do_global_dtors>:
__do_global_dtors():
/home/jenkins-mingw32/workspace/avr-gcc-staging/label/Ubuntu14.04x64-mingw32/gcc-build/avr/avrxmega3/libgcc/../../../../gcc/libgcc/config/avr/lib1funcs.S:2496
    18b2:	10 e0       	ldi	r17, 0x00	; 0
/home/jenkins-mingw32/workspace/avr-gcc-staging/label/Ubuntu14.04x64-mingw32/gcc-build/avr/avrxmega3/libgcc/../../../../gcc/libgcc/config/avr/lib1funcs.S:2497
    18b4:	c1 e5       	ldi	r28, 0x51	; 81
/home/jenkins-mingw32/workspace/avr-gcc-staging/label/Ubuntu14.04x64-mingw32/gcc-build/avr/avrxmega3/libgcc/../../../../gcc/libgcc/config/avr/lib1funcs.S:2498
    18b6:	d0 e0       	ldi	r29, 0x00	; 0
/home/jenkins-mingw32/workspace/avr-gcc-staging/label/Ubuntu14.04x64-mingw32/gcc-build/avr/avrxmega3/libgcc/../../../../gcc/libgcc/config/avr/lib1funcs.S:2502
    18b8:	03 c0       	rjmp	.+6      	; 0x18c0 <__do_global_dtors+0xe>
/home/jenkins-mingw32/workspace/avr-gcc-staging/label/Ubuntu14.04x64-mingw32/gcc-build/avr/avrxmega3/libgcc/../../../../gcc/libgcc/config/avr/lib1funcs.S:2508
    18ba:	fe 01       	movw	r30, r28
/home/jenkins-mingw32/workspace/avr-gcc-staging/label/Ubuntu14.04x64-mingw32/gcc-build/avr/avrxmega3/libgcc/../../../../gcc/libgcc/config/avr/lib1funcs.S:2509
    18bc:	ed dd       	rcall	.-1062   	; 0x1498 <__tablejump2__>
/home/jenkins-mingw32/workspace/avr-gcc-staging/label/Ubuntu14.04x64-mingw32/gcc-build/avr/avrxmega3/libgcc/../../../../gcc/libgcc/config/avr/lib1funcs.S:2510
    18be:	21 96       	adiw	r28, 0x01	; 1
/home/jenkins-mingw32/workspace/avr-gcc-staging/label/Ubuntu14.04x64-mingw32/gcc-build/avr/avrxmega3/libgcc/../../../../gcc/libgcc/config/avr/lib1funcs.S:2515
    18c0:	c2 35       	cpi	r28, 0x52	; 82
/home/jenkins-mingw32/workspace/avr-gcc-staging/label/Ubuntu14.04x64-mingw32/gcc-build/avr/avrxmega3/libgcc/../../../../gcc/libgcc/config/avr/lib1funcs.S:2516
    18c2:	d1 07       	cpc	r29, r17
/home/jenkins-mingw32/workspace/avr-gcc-staging/label/Ubuntu14.04x64-mingw32/gcc-build/avr/avrxmega3/libgcc/../../../../gcc/libgcc/config/avr/lib1funcs.S:2521
    18c4:	d1 f7       	brne	.-12     	; 0x18ba <__do_global_dtors+0x8>
/home/jenkins-mingw32/workspace/avr-gcc-staging/label/Ubuntu14.04x64-mingw32/gcc-build/avr/avrxmega3/libgcc/../../../../gcc/libgcc/config/avr/lib1funcs.S:2278
    18c6:	f8 94       	cli

000018c8 <__stop_program>:
__stop_program():
/home/jenkins-mingw32/workspace/avr-gcc-staging/label/Ubuntu14.04x64-mingw32/gcc-build/avr/avrxmega3/libgcc/../../../../gcc/libgcc/config/avr/lib1funcs.S:2280
    18c8:	ff cf       	rjmp	.-2      	; 0x18c8 <__stop_program>
